
MCU1626.elf:     file format elf32-avr

Sections:
Idx Name          Size      VMA       LMA       File off  Algn
  0 .data         00000004  00803800  0000182c  000018c0  2**0
                  CONTENTS, ALLOC, LOAD, DATA
  1 .text         0000182c  00000000  00000000  00000094  2**1
                  CONTENTS, ALLOC, LOAD, READONLY, CODE
  2 .bss          000000c5  00803804  00803804  000018c4  2**0
                  ALLOC
  3 .comment      00000030  00000000  00000000  000018c4  2**0
                  CONTENTS, READONLY
  4 .note.gnu.avr.deviceinfo 00000040  00000000  00000000  000018f4  2**2
                  CONTENTS, READONLY
  5 .debug_aranges 000001e8  00000000  00000000  00001938  2**3
                  CONTENTS, READONLY, DEBUGGING
  6 .debug_info   00005143  00000000  00000000  00001b20  2**0
                  CONTENTS, READONLY, DEBUGGING
  7 .debug_abbrev 0000243d  00000000  00000000  00006c63  2**0
                  CONTENTS, READONLY, DEBUGGING
  8 .debug_line   00001747  00000000  00000000  000090a0  2**0
                  CONTENTS, READONLY, DEBUGGING
  9 .debug_frame  0000045c  00000000  00000000  0000a7e8  2**2
                  CONTENTS, READONLY, DEBUGGING
 10 .debug_str    00001bb2  00000000  00000000  0000ac44  2**0
                  CONTENTS, READONLY, DEBUGGING
 11 .debug_loc    00000e1b  00000000  00000000  0000c7f6  2**0
                  CONTENTS, READONLY, DEBUGGING
 12 .debug_ranges 00000188  00000000  00000000  0000d611  2**0
                  CONTENTS, READONLY, DEBUGGING

Disassembly of section .text:

00000000 <__vectors>:
       0:	0c 94 8a 00 	jmp	0x114	; 0x114 <__ctors_end>
       4:	0c 94 a7 00 	jmp	0x14e	; 0x14e <__bad_interrupt>
       8:	0c 94 a7 00 	jmp	0x14e	; 0x14e <__bad_interrupt>
       c:	0c 94 a7 00 	jmp	0x14e	; 0x14e <__bad_interrupt>
      10:	0c 94 a7 00 	jmp	0x14e	; 0x14e <__bad_interrupt>
      14:	0c 94 a7 00 	jmp	0x14e	; 0x14e <__bad_interrupt>
      18:	0c 94 a7 00 	jmp	0x14e	; 0x14e <__bad_interrupt>
      1c:	0c 94 a7 00 	jmp	0x14e	; 0x14e <__bad_interrupt>
      20:	0c 94 13 01 	jmp	0x226	; 0x226 <__vector_8>
      24:	0c 94 a7 00 	jmp	0x14e	; 0x14e <__bad_interrupt>
      28:	0c 94 a7 00 	jmp	0x14e	; 0x14e <__bad_interrupt>
      2c:	0c 94 a7 00 	jmp	0x14e	; 0x14e <__bad_interrupt>
      30:	0c 94 a7 00 	jmp	0x14e	; 0x14e <__bad_interrupt>
      34:	0c 94 47 01 	jmp	0x28e	; 0x28e <__vector_13>
      38:	0c 94 76 01 	jmp	0x2ec	; 0x2ec <__vector_14>
      3c:	0c 94 a7 00 	jmp	0x14e	; 0x14e <__bad_interrupt>
      40:	0c 94 e4 00 	jmp	0x1c8	; 0x1c8 <__vector_16>
      44:	0c 94 a7 00 	jmp	0x14e	; 0x14e <__bad_interrupt>
      48:	0c 94 a7 00 	jmp	0x14e	; 0x14e <__bad_interrupt>
      4c:	0c 94 a7 00 	jmp	0x14e	; 0x14e <__bad_interrupt>
      50:	0c 94 a7 00 	jmp	0x14e	; 0x14e <__bad_interrupt>
      54:	0c 94 a7 00 	jmp	0x14e	; 0x14e <__bad_interrupt>
      58:	0c 94 a7 00 	jmp	0x14e	; 0x14e <__bad_interrupt>
      5c:	0c 94 b4 00 	jmp	0x168	; 0x168 <__vector_23>
      60:	0c 94 a7 00 	jmp	0x14e	; 0x14e <__bad_interrupt>
      64:	0c 94 a7 00 	jmp	0x14e	; 0x14e <__bad_interrupt>
      68:	0c 94 a7 00 	jmp	0x14e	; 0x14e <__bad_interrupt>
      6c:	0c 94 a7 00 	jmp	0x14e	; 0x14e <__bad_interrupt>
      70:	0c 94 a7 00 	jmp	0x14e	; 0x14e <__bad_interrupt>
      74:	0c 94 a7 00 	jmp	0x14e	; 0x14e <__bad_interrupt>
      78:	1b 07       	cpc	r17, r27
      7a:	85 07       	cpc	r24, r21
      7c:	85 07       	cpc	r24, r21
      7e:	85 07       	cpc	r24, r21
      80:	85 07       	cpc	r24, r21
      82:	85 07       	cpc	r24, r21
      84:	85 07       	cpc	r24, r21
      86:	85 07       	cpc	r24, r21
      88:	85 07       	cpc	r24, r21
      8a:	85 07       	cpc	r24, r21
      8c:	85 07       	cpc	r24, r21
      8e:	1f 07       	cpc	r17, r31
      90:	85 07       	cpc	r24, r21
      92:	85 07       	cpc	r24, r21
      94:	85 07       	cpc	r24, r21
      96:	85 07       	cpc	r24, r21
      98:	85 07       	cpc	r24, r21
      9a:	85 07       	cpc	r24, r21
      9c:	85 07       	cpc	r24, r21
      9e:	85 07       	cpc	r24, r21
      a0:	85 07       	cpc	r24, r21
      a2:	85 07       	cpc	r24, r21
      a4:	23 07       	cpc	r18, r19
      a6:	85 07       	cpc	r24, r21
      a8:	85 07       	cpc	r24, r21
      aa:	85 07       	cpc	r24, r21
      ac:	85 07       	cpc	r24, r21
      ae:	85 07       	cpc	r24, r21
      b0:	85 07       	cpc	r24, r21
      b2:	85 07       	cpc	r24, r21
      b4:	85 07       	cpc	r24, r21
      b6:	85 07       	cpc	r24, r21
      b8:	85 07       	cpc	r24, r21
      ba:	27 07       	cpc	r18, r23
      bc:	85 07       	cpc	r24, r21
      be:	85 07       	cpc	r24, r21
      c0:	85 07       	cpc	r24, r21
      c2:	85 07       	cpc	r24, r21
      c4:	85 07       	cpc	r24, r21
      c6:	85 07       	cpc	r24, r21
      c8:	85 07       	cpc	r24, r21
      ca:	85 07       	cpc	r24, r21
      cc:	85 07       	cpc	r24, r21
      ce:	85 07       	cpc	r24, r21
      d0:	2b 07       	cpc	r18, r27
      d2:	85 07       	cpc	r24, r21
      d4:	85 07       	cpc	r24, r21
      d6:	85 07       	cpc	r24, r21
      d8:	85 07       	cpc	r24, r21
      da:	85 07       	cpc	r24, r21
      dc:	85 07       	cpc	r24, r21
      de:	85 07       	cpc	r24, r21
      e0:	85 07       	cpc	r24, r21
      e2:	85 07       	cpc	r24, r21
      e4:	85 07       	cpc	r24, r21
      e6:	36 07       	cpc	r19, r22
      e8:	85 07       	cpc	r24, r21
      ea:	85 07       	cpc	r24, r21
      ec:	85 07       	cpc	r24, r21
      ee:	85 07       	cpc	r24, r21
      f0:	85 07       	cpc	r24, r21
      f2:	85 07       	cpc	r24, r21
      f4:	85 07       	cpc	r24, r21
      f6:	85 07       	cpc	r24, r21
      f8:	85 07       	cpc	r24, r21
      fa:	85 07       	cpc	r24, r21
      fc:	42 07       	cpc	r20, r18
      fe:	85 07       	cpc	r24, r21
     100:	85 07       	cpc	r24, r21
     102:	85 07       	cpc	r24, r21
     104:	85 07       	cpc	r24, r21
     106:	85 07       	cpc	r24, r21
     108:	85 07       	cpc	r24, r21
     10a:	85 07       	cpc	r24, r21
     10c:	85 07       	cpc	r24, r21
     10e:	85 07       	cpc	r24, r21
     110:	85 07       	cpc	r24, r21
     112:	4e 07       	cpc	r20, r30

00000114 <__ctors_end>:
     114:	11 24       	eor	r1, r1
     116:	1f be       	out	0x3f, r1	; 63
     118:	cf ef       	ldi	r28, 0xFF	; 255
     11a:	cd bf       	out	0x3d, r28	; 61
     11c:	df e3       	ldi	r29, 0x3F	; 63
     11e:	de bf       	out	0x3e, r29	; 62

00000120 <__do_copy_data>:
     120:	18 e3       	ldi	r17, 0x38	; 56
     122:	a0 e0       	ldi	r26, 0x00	; 0
     124:	b8 e3       	ldi	r27, 0x38	; 56
     126:	ec e2       	ldi	r30, 0x2C	; 44
     128:	f8 e1       	ldi	r31, 0x18	; 24
     12a:	02 c0       	rjmp	.+4      	; 0x130 <__do_copy_data+0x10>
     12c:	05 90       	lpm	r0, Z+
     12e:	0d 92       	st	X+, r0
     130:	a4 30       	cpi	r26, 0x04	; 4
     132:	b1 07       	cpc	r27, r17
     134:	d9 f7       	brne	.-10     	; 0x12c <__do_copy_data+0xc>

00000136 <__do_clear_bss>:
     136:	28 e3       	ldi	r18, 0x38	; 56
     138:	a4 e0       	ldi	r26, 0x04	; 4
     13a:	b8 e3       	ldi	r27, 0x38	; 56
     13c:	01 c0       	rjmp	.+2      	; 0x140 <.do_clear_bss_start>

0000013e <.do_clear_bss_loop>:
     13e:	1d 92       	st	X+, r1

00000140 <.do_clear_bss_start>:
     140:	a9 3c       	cpi	r26, 0xC9	; 201
     142:	b2 07       	cpc	r27, r18
     144:	e1 f7       	brne	.-8      	; 0x13e <.do_clear_bss_loop>
     146:	0e 94 0b 02 	call	0x416	; 0x416 <main>
     14a:	0c 94 14 0c 	jmp	0x1828	; 0x1828 <_exit>

0000014e <__bad_interrupt>:
     14e:	0c 94 00 00 	jmp	0	; 0x0 <__vectors>

00000152 <debug_init>:

void toggleDebugBU0(){
	if(BITMASK_CHECK_ALL(BU0_PT.OUT,BU0_BM)){
		BITMASK_SET(BU0_PT.OUTCLR,BU0_BM);
		}else{
		BITMASK_SET(BU0_PT.OUTSET,BU0_BM);
     152:	e0 e0       	ldi	r30, 0x00	; 0
     154:	f4 e0       	ldi	r31, 0x04	; 4
     156:	80 81       	ld	r24, Z
     158:	80 62       	ori	r24, 0x20	; 32
     15a:	80 83       	st	Z, r24
     15c:	e0 e4       	ldi	r30, 0x40	; 64
     15e:	f4 e0       	ldi	r31, 0x04	; 4
     160:	80 81       	ld	r24, Z
     162:	88 60       	ori	r24, 0x08	; 8
     164:	80 83       	st	Z, r24
     166:	08 95       	ret

00000168 <__vector_23>:
uint16_t i2c_responseValue;
volatile uint8_t counter=0;
volatile uint8_t counterNew=0;

//ADC sample is ready
ISR(ADC0_SAMPRDY_vect){
     168:	1f 92       	push	r1
     16a:	0f 92       	push	r0
     16c:	0f b6       	in	r0, 0x3f	; 63
     16e:	0f 92       	push	r0
     170:	11 24       	eor	r1, r1
     172:	2f 93       	push	r18
     174:	3f 93       	push	r19
     176:	4f 93       	push	r20
     178:	5f 93       	push	r21
     17a:	6f 93       	push	r22
     17c:	7f 93       	push	r23
     17e:	8f 93       	push	r24
     180:	9f 93       	push	r25
     182:	af 93       	push	r26
     184:	bf 93       	push	r27
     186:	ef 93       	push	r30
     188:	ff 93       	push	r31
	uint8_t tL=ADC0_SAMPLEL;
     18a:	20 91 14 06 	lds	r18, 0x0614	; 0x800614 <__RODATA_PM_OFFSET__+0x7f8614>
	uint8_t tH=ADC0_SAMPLEH;
     18e:	30 91 15 06 	lds	r19, 0x0615	; 0x800615 <__RODATA_PM_OFFSET__+0x7f8615>
	ADC0.INTFLAGS|=ADC_RESOVR_bm;
     192:	e0 e0       	ldi	r30, 0x00	; 0
     194:	f6 e0       	ldi	r31, 0x06	; 6
     196:	85 81       	ldd	r24, Z+5	; 0x05
     198:	88 60       	ori	r24, 0x08	; 8
     19a:	85 83       	std	Z+5, r24	; 0x05
	adc_setValue(((uint16_t)(tH<<8))|tL);
     19c:	80 e0       	ldi	r24, 0x00	; 0
     19e:	93 2f       	mov	r25, r19
     1a0:	82 2b       	or	r24, r18
     1a2:	0e 94 91 02 	call	0x522	; 0x522 <adc_setValue>
}
     1a6:	ff 91       	pop	r31
     1a8:	ef 91       	pop	r30
     1aa:	bf 91       	pop	r27
     1ac:	af 91       	pop	r26
     1ae:	9f 91       	pop	r25
     1b0:	8f 91       	pop	r24
     1b2:	7f 91       	pop	r23
     1b4:	6f 91       	pop	r22
     1b6:	5f 91       	pop	r21
     1b8:	4f 91       	pop	r20
     1ba:	3f 91       	pop	r19
     1bc:	2f 91       	pop	r18
     1be:	0f 90       	pop	r0
     1c0:	0f be       	out	0x3f, r0	; 63
     1c2:	0f 90       	pop	r0
     1c4:	1f 90       	pop	r1
     1c6:	18 95       	reti

000001c8 <__vector_16>:

//Led snet interrupt
//updates the shift register
ISR(SPI0_INT_vect){
     1c8:	1f 92       	push	r1
     1ca:	0f 92       	push	r0
     1cc:	0f b6       	in	r0, 0x3f	; 63
     1ce:	0f 92       	push	r0
     1d0:	11 24       	eor	r1, r1
     1d2:	8f 93       	push	r24
     1d4:	af 93       	push	r26
     1d6:	bf 93       	push	r27
     1d8:	ef 93       	push	r30
     1da:	ff 93       	push	r31
	if(SPI0.INTFLAGS&SPI_TXCIF_bm){
     1dc:	80 91 c3 08 	lds	r24, 0x08C3	; 0x8008c3 <__RODATA_PM_OFFSET__+0x7f88c3>
     1e0:	86 ff       	sbrs	r24, 6
     1e2:	17 c0       	rjmp	.+46     	; 0x212 <__vector_16+0x4a>
		BIT_SET(LED_SHU_PT.OUTSET,LED_SHU_BP);//ACK BIT ON
     1e4:	e0 e2       	ldi	r30, 0x20	; 32
     1e6:	f4 e0       	ldi	r31, 0x04	; 4
     1e8:	85 81       	ldd	r24, Z+5	; 0x05
     1ea:	84 60       	ori	r24, 0x04	; 4
     1ec:	85 83       	std	Z+5, r24	; 0x05
		BITMASK_SET(SPI0.INTFLAGS,SPI_TXCIF_bm);
     1ee:	a0 ec       	ldi	r26, 0xC0	; 192
     1f0:	b8 e0       	ldi	r27, 0x08	; 8
     1f2:	13 96       	adiw	r26, 0x03	; 3
     1f4:	8c 91       	ld	r24, X
     1f6:	13 97       	sbiw	r26, 0x03	; 3
     1f8:	80 64       	ori	r24, 0x40	; 64
     1fa:	13 96       	adiw	r26, 0x03	; 3
     1fc:	8c 93       	st	X, r24
     1fe:	13 97       	sbiw	r26, 0x03	; 3
		BITMASK_CLEAR(SPI0.INTCTRL,SPI_TXCIE_bm);
     200:	12 96       	adiw	r26, 0x02	; 2
     202:	8c 91       	ld	r24, X
     204:	12 97       	sbiw	r26, 0x02	; 2
     206:	8f 7b       	andi	r24, 0xBF	; 191
     208:	12 96       	adiw	r26, 0x02	; 2
     20a:	8c 93       	st	X, r24
		BIT_SET(LED_SHU_PT.OUTCLR,LED_SHU_BP);//ACK BIT OFF
     20c:	86 81       	ldd	r24, Z+6	; 0x06
     20e:	84 60       	ori	r24, 0x04	; 4
     210:	86 83       	std	Z+6, r24	; 0x06
		
	}
}
     212:	ff 91       	pop	r31
     214:	ef 91       	pop	r30
     216:	bf 91       	pop	r27
     218:	af 91       	pop	r26
     21a:	8f 91       	pop	r24
     21c:	0f 90       	pop	r0
     21e:	0f be       	out	0x3f, r0	; 63
     220:	0f 90       	pop	r0
     222:	1f 90       	pop	r1
     224:	18 95       	reti

00000226 <__vector_8>:

//LED Shift counter
//clock cycle 3ms/255
ISR(TCA0_OVF_vect){
     226:	1f 92       	push	r1
     228:	0f 92       	push	r0
     22a:	0f b6       	in	r0, 0x3f	; 63
     22c:	0f 92       	push	r0
     22e:	11 24       	eor	r1, r1
     230:	2f 93       	push	r18
     232:	3f 93       	push	r19
     234:	4f 93       	push	r20
     236:	5f 93       	push	r21
     238:	6f 93       	push	r22
     23a:	7f 93       	push	r23
     23c:	8f 93       	push	r24
     23e:	9f 93       	push	r25
     240:	af 93       	push	r26
     242:	bf 93       	push	r27
     244:	cf 93       	push	r28
     246:	df 93       	push	r29
     248:	ef 93       	push	r30
     24a:	ff 93       	push	r31
	TCA0.SINGLE.INTFLAGS|=TCA_SINGLE_OVF_bm;//clear interrupt flag
     24c:	c0 e0       	ldi	r28, 0x00	; 0
     24e:	da e0       	ldi	r29, 0x0A	; 10
     250:	8b 85       	ldd	r24, Y+11	; 0x0b
     252:	81 60       	ori	r24, 0x01	; 1
     254:	8b 87       	std	Y+11, r24	; 0x0b
	ledEvent rgbEvent=led_getNextEvent();
     256:	0e 94 4f 04 	call	0x89e	; 0x89e <led_getNextEvent>
	TCA0.SINGLE.PER=rgbEvent.time;
     25a:	90 e0       	ldi	r25, 0x00	; 0
     25c:	8e a3       	std	Y+38, r24	; 0x26
     25e:	9f a3       	std	Y+39, r25	; 0x27
	led_shiftSend(rgbEvent.shiftVal);
     260:	86 2f       	mov	r24, r22
     262:	97 2f       	mov	r25, r23
     264:	0e 94 44 04 	call	0x888	; 0x888 <led_shiftSend>
}
     268:	ff 91       	pop	r31
     26a:	ef 91       	pop	r30
     26c:	df 91       	pop	r29
     26e:	cf 91       	pop	r28
     270:	bf 91       	pop	r27
     272:	af 91       	pop	r26
     274:	9f 91       	pop	r25
     276:	8f 91       	pop	r24
     278:	7f 91       	pop	r23
     27a:	6f 91       	pop	r22
     27c:	5f 91       	pop	r21
     27e:	4f 91       	pop	r20
     280:	3f 91       	pop	r19
     282:	2f 91       	pop	r18
     284:	0f 90       	pop	r0
     286:	0f be       	out	0x3f, r0	; 63
     288:	0f 90       	pop	r0
     28a:	1f 90       	pop	r1
     28c:	18 95       	reti

0000028e <__vector_13>:
//100us
ISR(TCB0_INT_vect){
     28e:	1f 92       	push	r1
     290:	0f 92       	push	r0
     292:	0f b6       	in	r0, 0x3f	; 63
     294:	0f 92       	push	r0
     296:	11 24       	eor	r1, r1
     298:	2f 93       	push	r18
     29a:	8f 93       	push	r24
     29c:	9f 93       	push	r25
     29e:	ef 93       	push	r30
     2a0:	ff 93       	push	r31
	TCB0.INTFLAGS|=TCB_CAPT_bm;
     2a2:	e0 e8       	ldi	r30, 0x80	; 128
     2a4:	fa e0       	ldi	r31, 0x0A	; 10
     2a6:	86 81       	ldd	r24, Z+6	; 0x06
     2a8:	81 60       	ori	r24, 0x01	; 1
     2aa:	86 83       	std	Z+6, r24	; 0x06
	counterNew++;
     2ac:	80 91 04 38 	lds	r24, 0x3804	; 0x803804 <__data_end>
     2b0:	8f 5f       	subi	r24, 0xFF	; 255
     2b2:	80 93 04 38 	sts	0x3804, r24	; 0x803804 <__data_end>
	counterNew%=10;
     2b6:	20 91 04 38 	lds	r18, 0x3804	; 0x803804 <__data_end>
     2ba:	8d ec       	ldi	r24, 0xCD	; 205
     2bc:	28 9f       	mul	r18, r24
     2be:	81 2d       	mov	r24, r1
     2c0:	11 24       	eor	r1, r1
     2c2:	86 95       	lsr	r24
     2c4:	86 95       	lsr	r24
     2c6:	86 95       	lsr	r24
     2c8:	88 0f       	add	r24, r24
     2ca:	98 2f       	mov	r25, r24
     2cc:	99 0f       	add	r25, r25
     2ce:	99 0f       	add	r25, r25
     2d0:	89 0f       	add	r24, r25
     2d2:	28 1b       	sub	r18, r24
     2d4:	20 93 04 38 	sts	0x3804, r18	; 0x803804 <__data_end>
}
     2d8:	ff 91       	pop	r31
     2da:	ef 91       	pop	r30
     2dc:	9f 91       	pop	r25
     2de:	8f 91       	pop	r24
     2e0:	2f 91       	pop	r18
     2e2:	0f 90       	pop	r0
     2e4:	0f be       	out	0x3f, r0	; 63
     2e6:	0f 90       	pop	r0
     2e8:	1f 90       	pop	r1
     2ea:	18 95       	reti

000002ec <__vector_14>:

ISR(TWI0_TWIS_vect)
{
     2ec:	1f 92       	push	r1
     2ee:	0f 92       	push	r0
     2f0:	0f b6       	in	r0, 0x3f	; 63
     2f2:	0f 92       	push	r0
     2f4:	11 24       	eor	r1, r1
     2f6:	2f 93       	push	r18
     2f8:	3f 93       	push	r19
     2fa:	4f 93       	push	r20
     2fc:	5f 93       	push	r21
     2fe:	6f 93       	push	r22
     300:	7f 93       	push	r23
     302:	8f 93       	push	r24
     304:	9f 93       	push	r25
     306:	af 93       	push	r26
     308:	bf 93       	push	r27
     30a:	ef 93       	push	r30
     30c:	ff 93       	push	r31
	if(TWI0.SSTATUS & TWI_APIF_bm)					//Address match/stop interrupt
     30e:	80 91 ab 08 	lds	r24, 0x08AB	; 0x8008ab <__RODATA_PM_OFFSET__+0x7f88ab>
     312:	86 ff       	sbrs	r24, 6
     314:	18 c0       	rjmp	.+48     	; 0x346 <__vector_14+0x5a>
	{
		if (TWI0.SSTATUS & TWI_COLL_bm)
     316:	80 91 ab 08 	lds	r24, 0x08AB	; 0x8008ab <__RODATA_PM_OFFSET__+0x7f88ab>
     31a:	83 ff       	sbrs	r24, 3
     31c:	09 c0       	rjmp	.+18     	; 0x330 <__vector_14+0x44>
		{
			TWI0.SSTATUS |= TWI_COLL_bm;			//Clear Collision flag
     31e:	e0 ea       	ldi	r30, 0xA0	; 160
     320:	f8 e0       	ldi	r31, 0x08	; 8
     322:	83 85       	ldd	r24, Z+11	; 0x0b
     324:	88 60       	ori	r24, 0x08	; 8
     326:	83 87       	std	Z+11, r24	; 0x0b
			TWI0_SCTRLB = TWI_SCMD_COMPTRANS_gc;	//complete transaction
     328:	82 e0       	ldi	r24, 0x02	; 2
     32a:	80 93 aa 08 	sts	0x08AA, r24	; 0x8008aa <__RODATA_PM_OFFSET__+0x7f88aa>
			return;
     32e:	62 c0       	rjmp	.+196    	; 0x3f4 <__vector_14+0x108>
		}
		if(TWI0.SSTATUS & TWI_AP_bm)
     330:	80 91 ab 08 	lds	r24, 0x08AB	; 0x8008ab <__RODATA_PM_OFFSET__+0x7f88ab>
     334:	80 ff       	sbrs	r24, 0
     336:	04 c0       	rjmp	.+8      	; 0x340 <__vector_14+0x54>
		TWI0_SCTRLB = TWI_SCMD_RESPONSE_gc;		//Send ACK after address match
     338:	83 e0       	ldi	r24, 0x03	; 3
     33a:	80 93 aa 08 	sts	0x08AA, r24	; 0x8008aa <__RODATA_PM_OFFSET__+0x7f88aa>
     33e:	03 c0       	rjmp	.+6      	; 0x346 <__vector_14+0x5a>
		else
		TWI0_SCTRLB = TWI_SCMD_COMPTRANS_gc;	//complete transaction after Stop
     340:	82 e0       	ldi	r24, 0x02	; 2
     342:	80 93 aa 08 	sts	0x08AA, r24	; 0x8008aa <__RODATA_PM_OFFSET__+0x7f88aa>
	}
	
	if(TWI0.SSTATUS & TWI_DIF_bm)					//Data interrupt
     346:	80 91 ab 08 	lds	r24, 0x08AB	; 0x8008ab <__RODATA_PM_OFFSET__+0x7f88ab>
     34a:	88 23       	and	r24, r24
     34c:	0c f0       	brlt	.+2      	; 0x350 <__vector_14+0x64>
     34e:	52 c0       	rjmp	.+164    	; 0x3f4 <__vector_14+0x108>
	{
		if(TWI0.SSTATUS & TWI_DIR_bm)
     350:	80 91 ab 08 	lds	r24, 0x08AB	; 0x8008ab <__RODATA_PM_OFFSET__+0x7f88ab>
     354:	81 ff       	sbrs	r24, 1
     356:	47 c0       	rjmp	.+142    	; 0x3e6 <__vector_14+0xfa>
		{
			i2cResponseStrct resp = i2c_get_response();
     358:	0e 94 86 07 	call	0xf0c	; 0xf0c <i2c_get_response>
			switch(resp.response){
     35c:	81 30       	cpi	r24, 0x01	; 1
     35e:	b9 f0       	breq	.+46     	; 0x38e <__vector_14+0xa2>
     360:	28 f0       	brcs	.+10     	; 0x36c <__vector_14+0x80>
     362:	82 30       	cpi	r24, 0x02	; 2
     364:	29 f1       	breq	.+74     	; 0x3b0 <__vector_14+0xc4>
     366:	83 30       	cpi	r24, 0x03	; 3
     368:	99 f1       	breq	.+102    	; 0x3d0 <__vector_14+0xe4>
     36a:	36 c0       	rjmp	.+108    	; 0x3d8 <__vector_14+0xec>
				case sendADC0:
				if(resp.index==0){
     36c:	91 11       	cpse	r25, r1
     36e:	0a c0       	rjmp	.+20     	; 0x384 <__vector_14+0x98>
				i2c_responseValue=adc_getValue(0);
     370:	80 e0       	ldi	r24, 0x00	; 0
     372:	0e 94 88 02 	call	0x510	; 0x510 <adc_getValue>
     376:	80 93 17 38 	sts	0x3817, r24	; 0x803817 <i2c_responseValue>
     37a:	90 93 18 38 	sts	0x3818, r25	; 0x803818 <i2c_responseValue+0x1>
				TWI0.SDATA = (uint8_t)i2c_responseValue;
     37e:	80 93 ad 08 	sts	0x08AD, r24	; 0x8008ad <__RODATA_PM_OFFSET__+0x7f88ad>
     382:	2d c0       	rjmp	.+90     	; 0x3de <__vector_14+0xf2>
				}else
				TWI0.SDATA =(uint8_t)(i2c_responseValue>>8);
     384:	80 91 18 38 	lds	r24, 0x3818	; 0x803818 <i2c_responseValue+0x1>
     388:	80 93 ad 08 	sts	0x08AD, r24	; 0x8008ad <__RODATA_PM_OFFSET__+0x7f88ad>
     38c:	28 c0       	rjmp	.+80     	; 0x3de <__vector_14+0xf2>
				break;
				case sendADC1:
				if(resp.index==0){
     38e:	91 11       	cpse	r25, r1
     390:	0a c0       	rjmp	.+20     	; 0x3a6 <__vector_14+0xba>
				i2c_responseValue=adc_getValue(1);
     392:	81 e0       	ldi	r24, 0x01	; 1
     394:	0e 94 88 02 	call	0x510	; 0x510 <adc_getValue>
     398:	80 93 17 38 	sts	0x3817, r24	; 0x803817 <i2c_responseValue>
     39c:	90 93 18 38 	sts	0x3818, r25	; 0x803818 <i2c_responseValue+0x1>
				TWI0.SDATA = (uint8_t)i2c_responseValue;
     3a0:	80 93 ad 08 	sts	0x08AD, r24	; 0x8008ad <__RODATA_PM_OFFSET__+0x7f88ad>
     3a4:	1c c0       	rjmp	.+56     	; 0x3de <__vector_14+0xf2>
				}else
				TWI0.SDATA =(uint8_t)(i2c_responseValue>>8);
     3a6:	80 91 18 38 	lds	r24, 0x3818	; 0x803818 <i2c_responseValue+0x1>
     3aa:	80 93 ad 08 	sts	0x08AD, r24	; 0x8008ad <__RODATA_PM_OFFSET__+0x7f88ad>
     3ae:	17 c0       	rjmp	.+46     	; 0x3de <__vector_14+0xf2>
				break;
				case sendENC:
				if(resp.index==0){
     3b0:	91 11       	cpse	r25, r1
     3b2:	09 c0       	rjmp	.+18     	; 0x3c6 <__vector_14+0xda>
				i2c_responseValue=enc_getValue();
     3b4:	0e 94 cf 03 	call	0x79e	; 0x79e <enc_getValue>
     3b8:	80 93 17 38 	sts	0x3817, r24	; 0x803817 <i2c_responseValue>
     3bc:	90 93 18 38 	sts	0x3818, r25	; 0x803818 <i2c_responseValue+0x1>
				TWI0.SDATA = (uint8_t)i2c_responseValue;
     3c0:	80 93 ad 08 	sts	0x08AD, r24	; 0x8008ad <__RODATA_PM_OFFSET__+0x7f88ad>
     3c4:	0c c0       	rjmp	.+24     	; 0x3de <__vector_14+0xf2>
				}else
				TWI0.SDATA =(uint8_t)(i2c_responseValue>>8);
     3c6:	80 91 18 38 	lds	r24, 0x3818	; 0x803818 <i2c_responseValue+0x1>
     3ca:	80 93 ad 08 	sts	0x08AD, r24	; 0x8008ad <__RODATA_PM_OFFSET__+0x7f88ad>
     3ce:	07 c0       	rjmp	.+14     	; 0x3de <__vector_14+0xf2>
				break;
				case sendBUT:
				TWI0.SDATA=but_getValue();
     3d0:	0e 94 c0 02 	call	0x580	; 0x580 <but_getValue>
     3d4:	80 93 ad 08 	sts	0x08AD, r24	; 0x8008ad <__RODATA_PM_OFFSET__+0x7f88ad>
				default:
				TWI0.SDATA = 11;
     3d8:	8b e0       	ldi	r24, 0x0B	; 11
     3da:	80 93 ad 08 	sts	0x08AD, r24	; 0x8008ad <__RODATA_PM_OFFSET__+0x7f88ad>
				break;
			}
			// spi_get_response();						//Transmit data for Master to read
			
			TWI0_SCTRLB = TWI_SCMD_RESPONSE_gc;
     3de:	83 e0       	ldi	r24, 0x03	; 3
     3e0:	80 93 aa 08 	sts	0x08AA, r24	; 0x8008aa <__RODATA_PM_OFFSET__+0x7f88aa>
     3e4:	07 c0       	rjmp	.+14     	; 0x3f4 <__vector_14+0x108>
		}
		else
		{
			TWI0_SCTRLB = TWI_SCMD_RESPONSE_gc;
     3e6:	83 e0       	ldi	r24, 0x03	; 3
     3e8:	80 93 aa 08 	sts	0x08AA, r24	; 0x8008aa <__RODATA_PM_OFFSET__+0x7f88aa>
			uint8_t t=TWI0.SDATA;
     3ec:	80 91 ad 08 	lds	r24, 0x08AD	; 0x8008ad <__RODATA_PM_OFFSET__+0x7f88ad>
			i2c_set_message(t);
     3f0:	0e 94 03 07 	call	0xe06	; 0xe06 <i2c_set_message>
			//nnn=t;
			//Receive data written by Master
		}
	}
}
     3f4:	ff 91       	pop	r31
     3f6:	ef 91       	pop	r30
     3f8:	bf 91       	pop	r27
     3fa:	af 91       	pop	r26
     3fc:	9f 91       	pop	r25
     3fe:	8f 91       	pop	r24
     400:	7f 91       	pop	r23
     402:	6f 91       	pop	r22
     404:	5f 91       	pop	r21
     406:	4f 91       	pop	r20
     408:	3f 91       	pop	r19
     40a:	2f 91       	pop	r18
     40c:	0f 90       	pop	r0
     40e:	0f be       	out	0x3f, r0	; 63
     410:	0f 90       	pop	r0
     412:	1f 90       	pop	r1
     414:	18 95       	reti

00000416 <main>:


int main(void)
{	ccp_write_io((void *) & (CLKCTRL.MCLKCTRLB), 0); //protected write to disable prescaler of CPU clock
     416:	60 e0       	ldi	r22, 0x00	; 0
     418:	81 e6       	ldi	r24, 0x61	; 97
     41a:	90 e0       	ldi	r25, 0x00	; 0
     41c:	0e 94 c9 0b 	call	0x1792	; 0x1792 <ccp_write_io>
	debug_init();
     420:	0e 94 a9 00 	call	0x152	; 0x152 <debug_init>
	timer0_init();
     424:	0e 94 ef 07 	call	0xfde	; 0xfde <timer0_init>
	timer1_init();
     428:	0e 94 fc 07 	call	0xff8	; 0xff8 <timer1_init>
	i2c_init();
     42c:	0e 94 f2 06 	call	0xde4	; 0xde4 <i2c_init>
	led_init();
     430:	0e 94 c4 06 	call	0xd88	; 0xd88 <led_init>
	but_init();
     434:	0e 94 9c 03 	call	0x738	; 0x738 <but_init>
	adc_init();
     438:	0e 94 ac 02 	call	0x558	; 0x558 <adc_init>
	enc_init();
     43c:	0e 94 18 04 	call	0x830	; 0x830 <enc_init>
	sei();
     440:	78 94       	sei
	
	while (1)
	{
		if(counter!=counterNew){
     442:	90 91 05 38 	lds	r25, 0x3805	; 0x803805 <counter>
     446:	80 91 04 38 	lds	r24, 0x3804	; 0x803804 <__data_end>
     44a:	98 17       	cp	r25, r24
     44c:	d1 f3       	breq	.-12     	; 0x442 <main+0x2c>
			counter=counterNew;
     44e:	80 91 04 38 	lds	r24, 0x3804	; 0x803804 <__data_end>
     452:	80 93 05 38 	sts	0x3805, r24	; 0x803805 <counter>
			switch(counter){
     456:	80 91 05 38 	lds	r24, 0x3805	; 0x803805 <counter>
     45a:	82 30       	cpi	r24, 0x02	; 2
     45c:	a9 f1       	breq	.+106    	; 0x4c8 <main+0xb2>
     45e:	28 f4       	brcc	.+10     	; 0x46a <main+0x54>
     460:	88 23       	and	r24, r24
     462:	41 f0       	breq	.+16     	; 0x474 <main+0x5e>
     464:	81 30       	cpi	r24, 0x01	; 1
     466:	69 f1       	breq	.+90     	; 0x4c2 <main+0xac>
     468:	ec cf       	rjmp	.-40     	; 0x442 <main+0x2c>
     46a:	83 30       	cpi	r24, 0x03	; 3
     46c:	81 f1       	breq	.+96     	; 0x4ce <main+0xb8>
     46e:	86 30       	cpi	r24, 0x06	; 6
     470:	89 f1       	breq	.+98     	; 0x4d4 <main+0xbe>
     472:	e7 cf       	rjmp	.-50     	; 0x442 <main+0x2c>
				case 0:;//strange error but the semicolon has to be there
				i2cOrderStrct	a=i2c_get_order();
     474:	0e 94 c9 07 	call	0xf92	; 0xf92 <i2c_get_order>
     478:	26 2f       	mov	r18, r22
				if(a.order>-1){
					uint8_t		val=a.msg[2];
					val*=2;
     47a:	49 2f       	mov	r20, r25
     47c:	44 0f       	add	r20, r20
					uint16_t	angle=(a.msg[1]<<7)|(a.msg[0]&0xFF);
     47e:	30 e8       	ldi	r19, 0x80	; 128
     480:	83 9f       	mul	r24, r19
     482:	c0 01       	movw	r24, r0
     484:	11 24       	eor	r1, r1
     486:	fc 01       	movw	r30, r24
     488:	e7 2b       	or	r30, r23
     48a:	bf 01       	movw	r22, r30
					switch (a.order)
     48c:	22 30       	cpi	r18, 0x02	; 2
     48e:	69 f0       	breq	.+26     	; 0x4aa <main+0x94>
     490:	18 f4       	brcc	.+6      	; 0x498 <main+0x82>
     492:	21 30       	cpi	r18, 0x01	; 1
     494:	31 f0       	breq	.+12     	; 0x4a2 <main+0x8c>
     496:	d5 cf       	rjmp	.-86     	; 0x442 <main+0x2c>
     498:	23 30       	cpi	r18, 0x03	; 3
     49a:	59 f0       	breq	.+22     	; 0x4b2 <main+0x9c>
     49c:	24 30       	cpi	r18, 0x04	; 4
     49e:	69 f0       	breq	.+26     	; 0x4ba <main+0xa4>
     4a0:	d0 cf       	rjmp	.-96     	; 0x442 <main+0x2c>
					{
						case ordRgb0:
						led_updateRGB(0,angle,val);
     4a2:	80 e0       	ldi	r24, 0x00	; 0
     4a4:	0e 94 a0 06 	call	0xd40	; 0xd40 <led_updateRGB>
						break;
     4a8:	cc cf       	rjmp	.-104    	; 0x442 <main+0x2c>
						
						case ordRgb1:
						led_updateRGB(1,angle,val);
     4aa:	81 e0       	ldi	r24, 0x01	; 1
     4ac:	0e 94 a0 06 	call	0xd40	; 0xd40 <led_updateRGB>
						break;
     4b0:	c8 cf       	rjmp	.-112    	; 0x442 <main+0x2c>
						
						case ordRgb2:
						led_updateRGB(2,angle,val);
     4b2:	82 e0       	ldi	r24, 0x02	; 2
     4b4:	0e 94 a0 06 	call	0xd40	; 0xd40 <led_updateRGB>
						break;
     4b8:	c4 cf       	rjmp	.-120    	; 0x442 <main+0x2c>
						
						case ordRgb3:
						led_updateRGB(3,angle,val);
     4ba:	83 e0       	ldi	r24, 0x03	; 3
     4bc:	0e 94 a0 06 	call	0xd40	; 0xd40 <led_updateRGB>
						break;
     4c0:	c0 cf       	rjmp	.-128    	; 0x442 <main+0x2c>
					
				}
				
				break;
				case 1:
				enc_start();
     4c2:	0e 94 d4 03 	call	0x7a8	; 0x7a8 <enc_start>
				break;
     4c6:	bd cf       	rjmp	.-134    	; 0x442 <main+0x2c>
				case 2:
				adc_start();
     4c8:	0e 94 6d 02 	call	0x4da	; 0x4da <adc_start>
				break;
     4cc:	ba cf       	rjmp	.-140    	; 0x442 <main+0x2c>
				case 3:
				but_start();
     4ce:	0e 94 c3 02 	call	0x586	; 0x586 <but_start>
				break;
     4d2:	b7 cf       	rjmp	.-146    	; 0x442 <main+0x2c>
				case 6:
				adc_start();
     4d4:	0e 94 6d 02 	call	0x4da	; 0x4da <adc_start>
				break;
     4d8:	b4 cf       	rjmp	.-152    	; 0x442 <main+0x2c>

000004da <adc_start>:
    		return ((in) << leftShift) |
    					adc_increaseBitDepth(in, Bits_in, leftShift);

    	}

    }
     4da:	80 91 0c 06 	lds	r24, 0x060C	; 0x80060c <__RODATA_PM_OFFSET__+0x7f860c>
     4de:	90 91 06 38 	lds	r25, 0x3806	; 0x803806 <adcNum>
     4e2:	91 11       	cpse	r25, r1
     4e4:	02 c0       	rjmp	.+4      	; 0x4ea <adc_start+0x10>
     4e6:	98 e0       	ldi	r25, 0x08	; 8
     4e8:	01 c0       	rjmp	.+2      	; 0x4ec <adc_start+0x12>
     4ea:	99 e0       	ldi	r25, 0x09	; 9
     4ec:	89 2b       	or	r24, r25
     4ee:	e0 e0       	ldi	r30, 0x00	; 0
     4f0:	f6 e0       	ldi	r31, 0x06	; 6
     4f2:	84 87       	std	Z+12, r24	; 0x0c
     4f4:	82 e4       	ldi	r24, 0x42	; 66
     4f6:	8a 95       	dec	r24
     4f8:	f1 f7       	brne	.-4      	; 0x4f6 <adc_start+0x1c>
     4fa:	00 c0       	rjmp	.+0      	; 0x4fc <adc_start+0x22>
     4fc:	82 85       	ldd	r24, Z+10	; 0x0a
     4fe:	81 60       	ori	r24, 0x01	; 1
     500:	82 87       	std	Z+10, r24	; 0x0a
     502:	80 91 06 38 	lds	r24, 0x3806	; 0x803806 <adcNum>
     506:	8f 5f       	subi	r24, 0xFF	; 255
     508:	81 70       	andi	r24, 0x01	; 1
     50a:	80 93 06 38 	sts	0x3806, r24	; 0x803806 <adcNum>
     50e:	08 95       	ret

00000510 <adc_getValue>:
     510:	e8 2f       	mov	r30, r24
     512:	f0 e0       	ldi	r31, 0x00	; 0
     514:	ee 0f       	add	r30, r30
     516:	ff 1f       	adc	r31, r31
     518:	e7 5e       	subi	r30, 0xE7	; 231
     51a:	f7 4c       	sbci	r31, 0xC7	; 199
     51c:	80 81       	ld	r24, Z
     51e:	91 81       	ldd	r25, Z+1	; 0x01
     520:	08 95       	ret

00000522 <adc_setValue>:
     522:	e0 91 06 38 	lds	r30, 0x3806	; 0x803806 <adcNum>
     526:	f0 e0       	ldi	r31, 0x00	; 0
     528:	ee 0f       	add	r30, r30
     52a:	ff 1f       	adc	r31, r31
     52c:	e9 5f       	subi	r30, 0xF9	; 249
     52e:	f7 4c       	sbci	r31, 0xC7	; 199
     530:	80 83       	st	Z, r24
     532:	91 83       	std	Z+1, r25	; 0x01
     534:	f8 94       	cli
     536:	80 91 06 38 	lds	r24, 0x3806	; 0x803806 <adcNum>
     53a:	90 e0       	ldi	r25, 0x00	; 0
     53c:	88 0f       	add	r24, r24
     53e:	99 1f       	adc	r25, r25
     540:	fc 01       	movw	r30, r24
     542:	e9 5f       	subi	r30, 0xF9	; 249
     544:	f7 4c       	sbci	r31, 0xC7	; 199
     546:	20 81       	ld	r18, Z
     548:	31 81       	ldd	r19, Z+1	; 0x01
     54a:	fc 01       	movw	r30, r24
     54c:	e7 5e       	subi	r30, 0xE7	; 231
     54e:	f7 4c       	sbci	r31, 0xC7	; 199
     550:	20 83       	st	Z, r18
     552:	31 83       	std	Z+1, r19	; 0x01
     554:	78 94       	sei
     556:	08 95       	ret

00000558 <adc_init>:
11. Configure how an ADC conversion will start by writing to the START bit field in the Command register. If the
IMMEDIATE command is written, a conversion will start immediately.
12. Wait until the Result Ready (RESRDY) bit in the Interrupt
*/
void adc_init(){
	ADC0.CTRLA|=ADC_ENABLE_bm|ADC_LOWLAT_bm;
     558:	e0 e0       	ldi	r30, 0x00	; 0
     55a:	f6 e0       	ldi	r31, 0x06	; 6
     55c:	80 81       	ld	r24, Z
     55e:	81 62       	ori	r24, 0x21	; 33
     560:	80 83       	st	Z, r24
	ADC0.CTRLB|=ADC_PRESC_DIV2_gc;
     562:	81 81       	ldd	r24, Z+1	; 0x01
     564:	81 83       	std	Z+1, r24	; 0x01
	ADC0.CTRLC|=(ADC_TIMEBASE<< ADC_TIMEBASE_gp)|ADC_REFSEL_VDD_gc;
     566:	82 81       	ldd	r24, Z+2	; 0x02
     568:	80 6a       	ori	r24, 0xA0	; 160
     56a:	82 83       	std	Z+2, r24	; 0x02
	ADC0.CTRLE|=3;	//The simplest way of finding a good value is to do some quick single samples, store the results,
     56c:	80 85       	ldd	r24, Z+8	; 0x08
     56e:	83 60       	ori	r24, 0x03	; 3
     570:	80 87       	std	Z+8, r24	; 0x08
	//and see if the first sample(s) deviate too much from the others. If it does, then the SAMPDUR is too short.
	//For this to work, the input signal needs to be fairly stable while sampling.
	ADC0.COMMAND|=ADC_MODE_SINGLE_12BIT_gc;
     572:	82 85       	ldd	r24, Z+10	; 0x0a
     574:	80 61       	ori	r24, 0x10	; 16
     576:	82 87       	std	Z+10, r24	; 0x0a
	ADC0.INTCTRL|=ADC_SAMPRDY_bm;
     578:	84 81       	ldd	r24, Z+4	; 0x04
     57a:	82 60       	ori	r24, 0x02	; 2
     57c:	84 83       	std	Z+4, r24	; 0x04
     57e:	08 95       	ret

00000580 <but_getValue>:
uint8_t buttonCount=0;
uint8_t buttonStatesNew=0;
uint8_t buttonStates=0;
uint8_t but_getValue(){
	return buttonStates;
}
     580:	80 91 0b 38 	lds	r24, 0x380B	; 0x80380b <buttonStates>
     584:	08 95       	ret

00000586 <but_start>:
void but_start(){
	if(BIT_CHECK(BU0_PT.IN,BU0_BP)){
     586:	80 91 48 04 	lds	r24, 0x0448	; 0x800448 <__RODATA_PM_OFFSET__+0x7f8448>
     58a:	83 ff       	sbrs	r24, 3
     58c:	10 c0       	rjmp	.+32     	; 0x5ae <but_start+0x28>
		BIT_CLEAR(buttons[0],buttonCount);
     58e:	81 e0       	ldi	r24, 0x01	; 1
     590:	90 e0       	ldi	r25, 0x00	; 0
     592:	00 90 0d 38 	lds	r0, 0x380D	; 0x80380d <buttonCount>
     596:	02 c0       	rjmp	.+4      	; 0x59c <but_start+0x16>
     598:	88 0f       	add	r24, r24
     59a:	99 1f       	adc	r25, r25
     59c:	0a 94       	dec	r0
     59e:	e2 f7       	brpl	.-8      	; 0x598 <but_start+0x12>
     5a0:	ed e1       	ldi	r30, 0x1D	; 29
     5a2:	f8 e3       	ldi	r31, 0x38	; 56
     5a4:	80 95       	com	r24
     5a6:	90 81       	ld	r25, Z
     5a8:	89 23       	and	r24, r25
     5aa:	80 83       	st	Z, r24
     5ac:	0e c0       	rjmp	.+28     	; 0x5ca <but_start+0x44>
		}else{
		BIT_SET(buttons[0],buttonCount);
     5ae:	81 e0       	ldi	r24, 0x01	; 1
     5b0:	90 e0       	ldi	r25, 0x00	; 0
     5b2:	00 90 0d 38 	lds	r0, 0x380D	; 0x80380d <buttonCount>
     5b6:	02 c0       	rjmp	.+4      	; 0x5bc <but_start+0x36>
     5b8:	88 0f       	add	r24, r24
     5ba:	99 1f       	adc	r25, r25
     5bc:	0a 94       	dec	r0
     5be:	e2 f7       	brpl	.-8      	; 0x5b8 <but_start+0x32>
     5c0:	ed e1       	ldi	r30, 0x1D	; 29
     5c2:	f8 e3       	ldi	r31, 0x38	; 56
     5c4:	90 81       	ld	r25, Z
     5c6:	89 2b       	or	r24, r25
     5c8:	80 83       	st	Z, r24
	}
	if(buttons[0]==STATE_BUT_RELEASED){
     5ca:	80 91 1d 38 	lds	r24, 0x381D	; 0x80381d <buttons>
     5ce:	81 11       	cpse	r24, r1
     5d0:	06 c0       	rjmp	.+12     	; 0x5de <but_start+0x58>
		BIT_CLEAR(buttonStatesNew,BU0_STAT_BP);
     5d2:	80 91 0c 38 	lds	r24, 0x380C	; 0x80380c <buttonStatesNew>
     5d6:	8e 7f       	andi	r24, 0xFE	; 254
     5d8:	80 93 0c 38 	sts	0x380C, r24	; 0x80380c <buttonStatesNew>
     5dc:	07 c0       	rjmp	.+14     	; 0x5ec <but_start+0x66>
	}else
	if(buttons[0]==STATE_BUT_PRESSED){
     5de:	8f 3f       	cpi	r24, 0xFF	; 255
     5e0:	29 f4       	brne	.+10     	; 0x5ec <but_start+0x66>
		BIT_CLEAR(buttonStatesNew,BU0_STAT_BP);
     5e2:	80 91 0c 38 	lds	r24, 0x380C	; 0x80380c <buttonStatesNew>
     5e6:	8e 7f       	andi	r24, 0xFE	; 254
     5e8:	80 93 0c 38 	sts	0x380C, r24	; 0x80380c <buttonStatesNew>
	}
	if(BIT_CHECK(BU1_PT.IN,BU1_BP)){
     5ec:	80 91 08 04 	lds	r24, 0x0408	; 0x800408 <__RODATA_PM_OFFSET__+0x7f8408>
     5f0:	84 ff       	sbrs	r24, 4
     5f2:	10 c0       	rjmp	.+32     	; 0x614 <but_start+0x8e>
		BIT_CLEAR(buttons[1],buttonCount);
     5f4:	81 e0       	ldi	r24, 0x01	; 1
     5f6:	90 e0       	ldi	r25, 0x00	; 0
     5f8:	00 90 0d 38 	lds	r0, 0x380D	; 0x80380d <buttonCount>
     5fc:	02 c0       	rjmp	.+4      	; 0x602 <but_start+0x7c>
     5fe:	88 0f       	add	r24, r24
     600:	99 1f       	adc	r25, r25
     602:	0a 94       	dec	r0
     604:	e2 f7       	brpl	.-8      	; 0x5fe <but_start+0x78>
     606:	ed e1       	ldi	r30, 0x1D	; 29
     608:	f8 e3       	ldi	r31, 0x38	; 56
     60a:	80 95       	com	r24
     60c:	91 81       	ldd	r25, Z+1	; 0x01
     60e:	89 23       	and	r24, r25
     610:	81 83       	std	Z+1, r24	; 0x01
     612:	0e c0       	rjmp	.+28     	; 0x630 <but_start+0xaa>
		}else{
		BIT_SET(buttons[1],buttonCount);
     614:	81 e0       	ldi	r24, 0x01	; 1
     616:	90 e0       	ldi	r25, 0x00	; 0
     618:	00 90 0d 38 	lds	r0, 0x380D	; 0x80380d <buttonCount>
     61c:	02 c0       	rjmp	.+4      	; 0x622 <but_start+0x9c>
     61e:	88 0f       	add	r24, r24
     620:	99 1f       	adc	r25, r25
     622:	0a 94       	dec	r0
     624:	e2 f7       	brpl	.-8      	; 0x61e <but_start+0x98>
     626:	ed e1       	ldi	r30, 0x1D	; 29
     628:	f8 e3       	ldi	r31, 0x38	; 56
     62a:	91 81       	ldd	r25, Z+1	; 0x01
     62c:	89 2b       	or	r24, r25
     62e:	81 83       	std	Z+1, r24	; 0x01
	}
	if(buttons[1]==STATE_BUT_RELEASED){
     630:	80 91 1e 38 	lds	r24, 0x381E	; 0x80381e <buttons+0x1>
     634:	81 11       	cpse	r24, r1
     636:	06 c0       	rjmp	.+12     	; 0x644 <but_start+0xbe>
		BIT_CLEAR(buttonStatesNew,BU1_STAT_BP);
     638:	80 91 0c 38 	lds	r24, 0x380C	; 0x80380c <buttonStatesNew>
     63c:	8d 7f       	andi	r24, 0xFD	; 253
     63e:	80 93 0c 38 	sts	0x380C, r24	; 0x80380c <buttonStatesNew>
     642:	07 c0       	rjmp	.+14     	; 0x652 <but_start+0xcc>
	}else
	if(buttons[1]==STATE_BUT_PRESSED){
     644:	8f 3f       	cpi	r24, 0xFF	; 255
     646:	29 f4       	brne	.+10     	; 0x652 <but_start+0xcc>
		BIT_CLEAR(buttonStatesNew,BU1_STAT_BP);
     648:	80 91 0c 38 	lds	r24, 0x380C	; 0x80380c <buttonStatesNew>
     64c:	8d 7f       	andi	r24, 0xFD	; 253
     64e:	80 93 0c 38 	sts	0x380C, r24	; 0x80380c <buttonStatesNew>
	}

	if(BIT_CHECK(BU2_PT.IN,BU2_BP)){
     652:	80 91 48 04 	lds	r24, 0x0448	; 0x800448 <__RODATA_PM_OFFSET__+0x7f8448>
     656:	80 ff       	sbrs	r24, 0
     658:	10 c0       	rjmp	.+32     	; 0x67a <but_start+0xf4>
		BIT_CLEAR(buttons[2],buttonCount);
     65a:	81 e0       	ldi	r24, 0x01	; 1
     65c:	90 e0       	ldi	r25, 0x00	; 0
     65e:	00 90 0d 38 	lds	r0, 0x380D	; 0x80380d <buttonCount>
     662:	02 c0       	rjmp	.+4      	; 0x668 <but_start+0xe2>
     664:	88 0f       	add	r24, r24
     666:	99 1f       	adc	r25, r25
     668:	0a 94       	dec	r0
     66a:	e2 f7       	brpl	.-8      	; 0x664 <but_start+0xde>
     66c:	ed e1       	ldi	r30, 0x1D	; 29
     66e:	f8 e3       	ldi	r31, 0x38	; 56
     670:	80 95       	com	r24
     672:	92 81       	ldd	r25, Z+2	; 0x02
     674:	89 23       	and	r24, r25
     676:	82 83       	std	Z+2, r24	; 0x02
     678:	0e c0       	rjmp	.+28     	; 0x696 <but_start+0x110>
		}else{
		BIT_SET(buttons[2],buttonCount);
     67a:	81 e0       	ldi	r24, 0x01	; 1
     67c:	90 e0       	ldi	r25, 0x00	; 0
     67e:	00 90 0d 38 	lds	r0, 0x380D	; 0x80380d <buttonCount>
     682:	02 c0       	rjmp	.+4      	; 0x688 <but_start+0x102>
     684:	88 0f       	add	r24, r24
     686:	99 1f       	adc	r25, r25
     688:	0a 94       	dec	r0
     68a:	e2 f7       	brpl	.-8      	; 0x684 <but_start+0xfe>
     68c:	ed e1       	ldi	r30, 0x1D	; 29
     68e:	f8 e3       	ldi	r31, 0x38	; 56
     690:	92 81       	ldd	r25, Z+2	; 0x02
     692:	89 2b       	or	r24, r25
     694:	82 83       	std	Z+2, r24	; 0x02
	}
	if(buttons[2]==STATE_BUT_RELEASED){
     696:	80 91 1f 38 	lds	r24, 0x381F	; 0x80381f <buttons+0x2>
     69a:	81 11       	cpse	r24, r1
     69c:	06 c0       	rjmp	.+12     	; 0x6aa <but_start+0x124>
		BIT_CLEAR(buttonStatesNew,BU2_STAT_BP);
     69e:	80 91 0c 38 	lds	r24, 0x380C	; 0x80380c <buttonStatesNew>
     6a2:	8b 7f       	andi	r24, 0xFB	; 251
     6a4:	80 93 0c 38 	sts	0x380C, r24	; 0x80380c <buttonStatesNew>
     6a8:	07 c0       	rjmp	.+14     	; 0x6b8 <but_start+0x132>
	}else
	if(buttons[2]==STATE_BUT_PRESSED){
     6aa:	8f 3f       	cpi	r24, 0xFF	; 255
     6ac:	29 f4       	brne	.+10     	; 0x6b8 <but_start+0x132>
		BIT_CLEAR(buttonStatesNew,BU2_STAT_BP);
     6ae:	80 91 0c 38 	lds	r24, 0x380C	; 0x80380c <buttonStatesNew>
     6b2:	8b 7f       	andi	r24, 0xFB	; 251
     6b4:	80 93 0c 38 	sts	0x380C, r24	; 0x80380c <buttonStatesNew>
	}

	if(BIT_CHECK(BU3_PT.IN,BU3_BP)){
     6b8:	80 91 28 04 	lds	r24, 0x0428	; 0x800428 <__RODATA_PM_OFFSET__+0x7f8428>
     6bc:	84 ff       	sbrs	r24, 4
     6be:	10 c0       	rjmp	.+32     	; 0x6e0 <but_start+0x15a>
		BIT_CLEAR(buttons[3],buttonCount);
     6c0:	81 e0       	ldi	r24, 0x01	; 1
     6c2:	90 e0       	ldi	r25, 0x00	; 0
     6c4:	00 90 0d 38 	lds	r0, 0x380D	; 0x80380d <buttonCount>
     6c8:	02 c0       	rjmp	.+4      	; 0x6ce <but_start+0x148>
     6ca:	88 0f       	add	r24, r24
     6cc:	99 1f       	adc	r25, r25
     6ce:	0a 94       	dec	r0
     6d0:	e2 f7       	brpl	.-8      	; 0x6ca <but_start+0x144>
     6d2:	ed e1       	ldi	r30, 0x1D	; 29
     6d4:	f8 e3       	ldi	r31, 0x38	; 56
     6d6:	80 95       	com	r24
     6d8:	93 81       	ldd	r25, Z+3	; 0x03
     6da:	89 23       	and	r24, r25
     6dc:	83 83       	std	Z+3, r24	; 0x03
     6de:	0e c0       	rjmp	.+28     	; 0x6fc <but_start+0x176>
		}else{
		BIT_SET(buttons[3],buttonCount);
     6e0:	81 e0       	ldi	r24, 0x01	; 1
     6e2:	90 e0       	ldi	r25, 0x00	; 0
     6e4:	00 90 0d 38 	lds	r0, 0x380D	; 0x80380d <buttonCount>
     6e8:	02 c0       	rjmp	.+4      	; 0x6ee <but_start+0x168>
     6ea:	88 0f       	add	r24, r24
     6ec:	99 1f       	adc	r25, r25
     6ee:	0a 94       	dec	r0
     6f0:	e2 f7       	brpl	.-8      	; 0x6ea <but_start+0x164>
     6f2:	ed e1       	ldi	r30, 0x1D	; 29
     6f4:	f8 e3       	ldi	r31, 0x38	; 56
     6f6:	93 81       	ldd	r25, Z+3	; 0x03
     6f8:	89 2b       	or	r24, r25
     6fa:	83 83       	std	Z+3, r24	; 0x03
	}
	if(buttons[3]==STATE_BUT_RELEASED){
     6fc:	80 91 20 38 	lds	r24, 0x3820	; 0x803820 <buttons+0x3>
     700:	81 11       	cpse	r24, r1
     702:	06 c0       	rjmp	.+12     	; 0x710 <but_start+0x18a>
		BIT_CLEAR(buttonStatesNew,BU3_STAT_BP);
     704:	80 91 0c 38 	lds	r24, 0x380C	; 0x80380c <buttonStatesNew>
     708:	87 7f       	andi	r24, 0xF7	; 247
     70a:	80 93 0c 38 	sts	0x380C, r24	; 0x80380c <buttonStatesNew>
     70e:	07 c0       	rjmp	.+14     	; 0x71e <but_start+0x198>
	}else
	if(buttons[3]==STATE_BUT_PRESSED){
     710:	8f 3f       	cpi	r24, 0xFF	; 255
     712:	29 f4       	brne	.+10     	; 0x71e <but_start+0x198>
		BIT_CLEAR(buttonStatesNew,BU3_STAT_BP);
     714:	80 91 0c 38 	lds	r24, 0x380C	; 0x80380c <buttonStatesNew>
     718:	87 7f       	andi	r24, 0xF7	; 247
     71a:	80 93 0c 38 	sts	0x380C, r24	; 0x80380c <buttonStatesNew>
	}
	buttonCount=(buttonCount+1)&0b00000111;
     71e:	80 91 0d 38 	lds	r24, 0x380D	; 0x80380d <buttonCount>
     722:	8f 5f       	subi	r24, 0xFF	; 255
     724:	87 70       	andi	r24, 0x07	; 7
     726:	80 93 0d 38 	sts	0x380D, r24	; 0x80380d <buttonCount>
	cli();
     72a:	f8 94       	cli
	buttonStates=buttonStatesNew;
     72c:	80 91 0c 38 	lds	r24, 0x380C	; 0x80380c <buttonStatesNew>
     730:	80 93 0b 38 	sts	0x380B, r24	; 0x80380b <buttonStates>
	sei();
     734:	78 94       	sei
     736:	08 95       	ret

00000738 <but_init>:
	
}
void but_init(){
	for (int i=0;i<4;i++)
     738:	80 e0       	ldi	r24, 0x00	; 0
     73a:	90 e0       	ldi	r25, 0x00	; 0
     73c:	05 c0       	rjmp	.+10     	; 0x748 <but_init+0x10>
	{
		buttons[i]=STATE_BUT_RELEASED;
     73e:	fc 01       	movw	r30, r24
     740:	e3 5e       	subi	r30, 0xE3	; 227
     742:	f7 4c       	sbci	r31, 0xC7	; 199
     744:	10 82       	st	Z, r1
	buttonStates=buttonStatesNew;
	sei();
	
}
void but_init(){
	for (int i=0;i<4;i++)
     746:	01 96       	adiw	r24, 0x01	; 1
     748:	84 30       	cpi	r24, 0x04	; 4
     74a:	91 05       	cpc	r25, r1
     74c:	c4 f3       	brlt	.-16     	; 0x73e <but_init+0x6>
	{
		buttons[i]=STATE_BUT_RELEASED;
	}
	
	BITMASK_CLEAR(PORTC.DIR,PIN3_bm);
     74e:	e0 e4       	ldi	r30, 0x40	; 64
     750:	f4 e0       	ldi	r31, 0x04	; 4
     752:	80 81       	ld	r24, Z
     754:	87 7f       	andi	r24, 0xF7	; 247
     756:	80 83       	st	Z, r24
	BIT_SET(PORTC.PIN3CTRL,PORT_PULLUPEN_bp);//BUtton0 PC3
     758:	83 89       	ldd	r24, Z+19	; 0x13
     75a:	88 60       	ori	r24, 0x08	; 8
     75c:	83 8b       	std	Z+19, r24	; 0x13
	BITMASK_CLEAR(PORTA.DIR,PIN4_bm);
     75e:	a0 e0       	ldi	r26, 0x00	; 0
     760:	b4 e0       	ldi	r27, 0x04	; 4
     762:	8c 91       	ld	r24, X
     764:	8f 7e       	andi	r24, 0xEF	; 239
     766:	8c 93       	st	X, r24
	BIT_SET(PORTA.PIN4CTRL,PORT_PULLUPEN_bp);//Button1 PA4
     768:	54 96       	adiw	r26, 0x14	; 20
     76a:	8c 91       	ld	r24, X
     76c:	54 97       	sbiw	r26, 0x14	; 20
     76e:	88 60       	ori	r24, 0x08	; 8
     770:	54 96       	adiw	r26, 0x14	; 20
     772:	8c 93       	st	X, r24

	BITMASK_CLEAR(PORTC.DIR,PIN0_bm);
     774:	80 81       	ld	r24, Z
     776:	8e 7f       	andi	r24, 0xFE	; 254
     778:	80 83       	st	Z, r24
	BIT_SET(PORTC.PIN0CTRL,PORT_PULLUPEN_bp);//Button2 PC0
     77a:	80 89       	ldd	r24, Z+16	; 0x10
     77c:	88 60       	ori	r24, 0x08	; 8
     77e:	80 8b       	std	Z+16, r24	; 0x10
	BITMASK_CLEAR(PORTB.DIR,PIN4_bm);
     780:	e0 e2       	ldi	r30, 0x20	; 32
     782:	f4 e0       	ldi	r31, 0x04	; 4
     784:	80 81       	ld	r24, Z
     786:	8f 7e       	andi	r24, 0xEF	; 239
     788:	80 83       	st	Z, r24
	BIT_SET(PORTB.PIN4CTRL,PORT_PULLUPEN_bp);//Button3 PB4
     78a:	84 89       	ldd	r24, Z+20	; 0x14
     78c:	88 60       	ori	r24, 0x08	; 8
     78e:	84 8b       	std	Z+20, r24	; 0x14
	#else
		//round up by default
		__ticks_dc = (uint32_t)(ceil(fabs(__tmp)));
	#endif

	__builtin_avr_delay_cycles(__ticks_dc);
     790:	87 e8       	ldi	r24, 0x87	; 135
     792:	93 e1       	ldi	r25, 0x13	; 19
     794:	01 97       	sbiw	r24, 0x01	; 1
     796:	f1 f7       	brne	.-4      	; 0x794 <but_init+0x5c>
     798:	00 c0       	rjmp	.+0      	; 0x79a <but_init+0x62>
     79a:	00 00       	nop
     79c:	08 95       	ret

0000079e <enc_getValue>:
int16_t enc_val=0;
static int8_t last;

uint16_t enc_getValue(){
	return enc_val;
}
     79e:	80 91 0f 38 	lds	r24, 0x380F	; 0x80380f <enc_val>
     7a2:	90 91 10 38 	lds	r25, 0x3810	; 0x803810 <enc_val+0x1>
     7a6:	08 95       	ret

000007a8 <enc_start>:

void enc_start(){
	int8_t new, diff;
	new = 0;
	if(BIT_CHECK(ENC_A_PT.IN,ENC_A_BP)) new  = 3;
     7a8:	80 91 48 04 	lds	r24, 0x0448	; 0x800448 <__RODATA_PM_OFFSET__+0x7f8448>
     7ac:	81 fd       	sbrc	r24, 1
     7ae:	02 c0       	rjmp	.+4      	; 0x7b4 <enc_start+0xc>
	return enc_val;
}

void enc_start(){
	int8_t new, diff;
	new = 0;
     7b0:	90 e0       	ldi	r25, 0x00	; 0
     7b2:	01 c0       	rjmp	.+2      	; 0x7b6 <enc_start+0xe>
	if(BIT_CHECK(ENC_A_PT.IN,ENC_A_BP)) new  = 3;
     7b4:	93 e0       	ldi	r25, 0x03	; 3
	if(BIT_CHECK(ENC_B_PT.IN,ENC_B_BP)) new ^= 1;       // convert gray to binary
     7b6:	80 91 28 04 	lds	r24, 0x0428	; 0x800428 <__RODATA_PM_OFFSET__+0x7f8428>
     7ba:	83 ff       	sbrs	r24, 3
     7bc:	02 c0       	rjmp	.+4      	; 0x7c2 <enc_start+0x1a>
     7be:	81 e0       	ldi	r24, 0x01	; 1
     7c0:	98 27       	eor	r25, r24
	diff = last - new;               // difference last - new
     7c2:	80 91 0e 38 	lds	r24, 0x380E	; 0x80380e <last>
     7c6:	89 1b       	sub	r24, r25
	if( diff & 1 ) {                 // bit 0 = value (1)
     7c8:	80 ff       	sbrs	r24, 0
     7ca:	09 c0       	rjmp	.+18     	; 0x7de <enc_start+0x36>
		last = new;                    // store new as next last
     7cc:	90 93 0e 38 	sts	0x380E, r25	; 0x80380e <last>
		enc_delta += (diff & 2) - 1;   // bit 1 = direction (+/-)
     7d0:	82 70       	andi	r24, 0x02	; 2
     7d2:	90 91 21 38 	lds	r25, 0x3821	; 0x803821 <enc_delta>
     7d6:	89 0f       	add	r24, r25
     7d8:	81 50       	subi	r24, 0x01	; 1
     7da:	80 93 21 38 	sts	0x3821, r24	; 0x803821 <enc_delta>
	}
	if(enc_delta!=0){
     7de:	20 91 21 38 	lds	r18, 0x3821	; 0x803821 <enc_delta>
     7e2:	22 23       	and	r18, r18
     7e4:	21 f1       	breq	.+72     	; 0x82e <__DATA_REGION_LENGTH__+0x2e>
		enc_val += (enc_delta);          // read a single step encoder
     7e6:	80 91 0f 38 	lds	r24, 0x380F	; 0x80380f <enc_val>
     7ea:	90 91 10 38 	lds	r25, 0x3810	; 0x803810 <enc_val+0x1>
     7ee:	82 0f       	add	r24, r18
     7f0:	91 1d       	adc	r25, r1
     7f2:	27 fd       	sbrc	r18, 7
     7f4:	9a 95       	dec	r25
     7f6:	80 93 0f 38 	sts	0x380F, r24	; 0x80380f <enc_val>
     7fa:	90 93 10 38 	sts	0x3810, r25	; 0x803810 <enc_val+0x1>
		
		if(enc_val>360){
     7fe:	89 36       	cpi	r24, 0x69	; 105
     800:	21 e0       	ldi	r18, 0x01	; 1
     802:	92 07       	cpc	r25, r18
     804:	3c f0       	brlt	.+14     	; 0x814 <__DATA_REGION_LENGTH__+0x14>
			enc_val-=360;
     806:	88 56       	subi	r24, 0x68	; 104
     808:	91 40       	sbci	r25, 0x01	; 1
     80a:	80 93 0f 38 	sts	0x380F, r24	; 0x80380f <enc_val>
     80e:	90 93 10 38 	sts	0x3810, r25	; 0x803810 <enc_val+0x1>
     812:	0b c0       	rjmp	.+22     	; 0x82a <__DATA_REGION_LENGTH__+0x2a>
			}else if (enc_val<0){
     814:	99 23       	and	r25, r25
     816:	4c f4       	brge	.+18     	; 0x82a <__DATA_REGION_LENGTH__+0x2a>
			enc_val=360-enc_val;
     818:	28 e6       	ldi	r18, 0x68	; 104
     81a:	31 e0       	ldi	r19, 0x01	; 1
     81c:	a9 01       	movw	r20, r18
     81e:	48 1b       	sub	r20, r24
     820:	59 0b       	sbc	r21, r25
     822:	40 93 0f 38 	sts	0x380F, r20	; 0x80380f <enc_val>
     826:	50 93 10 38 	sts	0x3810, r21	; 0x803810 <enc_val+0x1>
		}
		//leds[0]=hsvtoRGB(encoder_val,255);
		
		enc_delta=0;
     82a:	10 92 21 38 	sts	0x3821, r1	; 0x803821 <enc_delta>
     82e:	08 95       	ret

00000830 <enc_init>:
}
void enc_init() {
	int8_t new;
	
	// init encoder
	BIT_CLEAR(ENC_A_PT.DIR,ENC_A_BP);
     830:	e0 e4       	ldi	r30, 0x40	; 64
     832:	f4 e0       	ldi	r31, 0x04	; 4
     834:	80 81       	ld	r24, Z
     836:	8d 7f       	andi	r24, 0xFD	; 253
     838:	80 83       	st	Z, r24
	BIT_SET(ENC_A_PT.PIN1CTRL,PORT_PULLUPEN_bp);//Button1 PA4
     83a:	81 89       	ldd	r24, Z+17	; 0x11
     83c:	88 60       	ori	r24, 0x08	; 8
     83e:	81 8b       	std	Z+17, r24	; 0x11
	BIT_CLEAR(ENC_B_PT.DIR,ENC_B_BP);
     840:	a0 e2       	ldi	r26, 0x20	; 32
     842:	b4 e0       	ldi	r27, 0x04	; 4
     844:	8c 91       	ld	r24, X
     846:	87 7f       	andi	r24, 0xF7	; 247
     848:	8c 93       	st	X, r24
	BIT_SET(ENC_B_PT.PIN3CTRL,PORT_PULLUPEN_bp);//Button1 PA4
     84a:	53 96       	adiw	r26, 0x13	; 19
     84c:	8c 91       	ld	r24, X
     84e:	53 97       	sbiw	r26, 0x13	; 19
     850:	88 60       	ori	r24, 0x08	; 8
     852:	53 96       	adiw	r26, 0x13	; 19
     854:	8c 93       	st	X, r24
	//_delay_ms(1);
	
	new = 0;
	if(BIT_CHECK(ENC_A_PT.IN,ENC_A_BP)) new  = 3;
     856:	80 85       	ldd	r24, Z+8	; 0x08
     858:	81 fd       	sbrc	r24, 1
     85a:	02 c0       	rjmp	.+4      	; 0x860 <enc_init+0x30>
	BIT_SET(ENC_A_PT.PIN1CTRL,PORT_PULLUPEN_bp);//Button1 PA4
	BIT_CLEAR(ENC_B_PT.DIR,ENC_B_BP);
	BIT_SET(ENC_B_PT.PIN3CTRL,PORT_PULLUPEN_bp);//Button1 PA4
	//_delay_ms(1);
	
	new = 0;
     85c:	80 e0       	ldi	r24, 0x00	; 0
     85e:	01 c0       	rjmp	.+2      	; 0x862 <enc_init+0x32>
	if(BIT_CHECK(ENC_A_PT.IN,ENC_A_BP)) new  = 3;
     860:	83 e0       	ldi	r24, 0x03	; 3
	if(BIT_CHECK(ENC_B_PT.IN,ENC_B_BP)) new ^= 1;       // convert gray to binary
     862:	90 91 28 04 	lds	r25, 0x0428	; 0x800428 <__RODATA_PM_OFFSET__+0x7f8428>
     866:	93 ff       	sbrs	r25, 3
     868:	02 c0       	rjmp	.+4      	; 0x86e <enc_init+0x3e>
     86a:	91 e0       	ldi	r25, 0x01	; 1
     86c:	89 27       	eor	r24, r25
	last = new;                         // power on state
     86e:	80 93 0e 38 	sts	0x380E, r24	; 0x80380e <last>
	enc_delta = 0;
     872:	10 92 21 38 	sts	0x3821, r1	; 0x803821 <enc_delta>
     876:	08 95       	ret

00000878 <led_Compare>:
}
int led_Compare(const void *a, const void *b) {

	ledStruct *a1 = (ledStruct*) a;
	ledStruct *a2 = (ledStruct*) b;
	return a1->ledVal.time - a2->ledVal.time;
     878:	fc 01       	movw	r30, r24
     87a:	83 81       	ldd	r24, Z+3	; 0x03
     87c:	90 e0       	ldi	r25, 0x00	; 0
     87e:	fb 01       	movw	r30, r22
     880:	23 81       	ldd	r18, Z+3	; 0x03
}
     882:	82 1b       	sub	r24, r18
     884:	91 09       	sbc	r25, r1
     886:	08 95       	ret

00000888 <led_shiftSend>:
ledEvent ledEvents[12];
uint8_t nLedEventUpdate = 1;
uint8_t nLedEvent = 1;

void led_shiftSend(uint16_t data) {
	if (SPI0.INTFLAGS & SPI_DREIF_bm) {			//transfer complete flag
     888:	20 91 c3 08 	lds	r18, 0x08C3	; 0x8008c3 <__RODATA_PM_OFFSET__+0x7f88c3>
     88c:	25 ff       	sbrs	r18, 5
     88e:	06 c0       	rjmp	.+12     	; 0x89c <led_shiftSend+0x14>
		SPI0.INTCTRL = SPI_TXCIE_bm;
     890:	e0 ec       	ldi	r30, 0xC0	; 192
     892:	f8 e0       	ldi	r31, 0x08	; 8
     894:	20 e4       	ldi	r18, 0x40	; 64
     896:	22 83       	std	Z+2, r18	; 0x02
		SPI0.DATA = (uint8_t) ((data >> 8) & 0xFF);
     898:	94 83       	std	Z+4, r25	; 0x04
		SPI0.DATA = (uint8_t) data;
     89a:	84 83       	std	Z+4, r24	; 0x04
     89c:	08 95       	ret

0000089e <led_getNextEvent>:
	led_updateRGB(0,0,0);
	led_updateRGB(1,0,0);
	led_updateRGB(2,0,0);
	led_updateRGB(3,0,0);
}
ledEvent led_getNextEvent() {
     89e:	cf 93       	push	r28

	if(ptrLedEvents&&iLedEvent==0){
     8a0:	80 91 11 38 	lds	r24, 0x3811	; 0x803811 <ptrLedEvents>
     8a4:	90 91 12 38 	lds	r25, 0x3812	; 0x803812 <ptrLedEvents+0x1>
     8a8:	89 2b       	or	r24, r25
     8aa:	c9 f0       	breq	.+50     	; 0x8de <led_getNextEvent+0x40>
     8ac:	80 91 13 38 	lds	r24, 0x3813	; 0x803813 <iLedEvent>
     8b0:	81 11       	cpse	r24, r1
     8b2:	15 c0       	rjmp	.+42     	; 0x8de <led_getNextEvent+0x40>
		memcpy(ledEvents,ledEventsUpdate,sizeof ledEvents[0]*nLedEventUpdate);
     8b4:	c0 91 01 38 	lds	r28, 0x3801	; 0x803801 <nLedEventUpdate>
     8b8:	4c 2f       	mov	r20, r28
     8ba:	50 e0       	ldi	r21, 0x00	; 0
     8bc:	ca 01       	movw	r24, r20
     8be:	88 0f       	add	r24, r24
     8c0:	99 1f       	adc	r25, r25
     8c2:	48 0f       	add	r20, r24
     8c4:	59 1f       	adc	r21, r25
     8c6:	62 e2       	ldi	r22, 0x22	; 34
     8c8:	78 e3       	ldi	r23, 0x38	; 56
     8ca:	86 e4       	ldi	r24, 0x46	; 70
     8cc:	98 e3       	ldi	r25, 0x38	; 56
     8ce:	0e 94 c0 0b 	call	0x1780	; 0x1780 <memcpy>
		nLedEvent=nLedEventUpdate;
     8d2:	c0 93 00 38 	sts	0x3800, r28	; 0x803800 <__DATA_REGION_ORIGIN__>
		ptrLedEvents=NULL;
     8d6:	10 92 11 38 	sts	0x3811, r1	; 0x803811 <ptrLedEvents>
     8da:	10 92 12 38 	sts	0x3812, r1	; 0x803812 <ptrLedEvents+0x1>
	}
	ledEvent retVal = ledEvents[iLedEvent];
     8de:	80 91 13 38 	lds	r24, 0x3813	; 0x803813 <iLedEvent>
     8e2:	28 2f       	mov	r18, r24
     8e4:	30 e0       	ldi	r19, 0x00	; 0
     8e6:	f9 01       	movw	r30, r18
     8e8:	ee 0f       	add	r30, r30
     8ea:	ff 1f       	adc	r31, r31
     8ec:	2e 0f       	add	r18, r30
     8ee:	3f 1f       	adc	r19, r31
     8f0:	f9 01       	movw	r30, r18
     8f2:	ea 5b       	subi	r30, 0xBA	; 186
     8f4:	f7 4c       	sbci	r31, 0xC7	; 199
     8f6:	20 81       	ld	r18, Z
     8f8:	31 81       	ldd	r19, Z+1	; 0x01
     8fa:	42 81       	ldd	r20, Z+2	; 0x02
	iLedEvent++;
     8fc:	8f 5f       	subi	r24, 0xFF	; 255
	iLedEvent %= nLedEvent;
     8fe:	60 91 00 38 	lds	r22, 0x3800	; 0x803800 <__DATA_REGION_ORIGIN__>
     902:	0e 94 c9 09 	call	0x1392	; 0x1392 <__udivmodqi4>
     906:	90 93 13 38 	sts	0x3813, r25	; 0x803813 <iLedEvent>
	return retVal;
}
     90a:	84 2f       	mov	r24, r20
     90c:	b9 01       	movw	r22, r18
     90e:	cf 91       	pop	r28
     910:	08 95       	ret

00000912 <led_hsvToRGB>:

	ledStruct *a1 = (ledStruct*) a;
	ledStruct *a2 = (ledStruct*) b;
	return a1->ledVal.time - a2->ledVal.time;
}
void led_hsvToRGB(rgbLed *rgbBut, float angle, uint8_t val) {
     912:	8f 92       	push	r8
     914:	9f 92       	push	r9
     916:	af 92       	push	r10
     918:	bf 92       	push	r11
     91a:	cf 92       	push	r12
     91c:	df 92       	push	r13
     91e:	ef 92       	push	r14
     920:	ff 92       	push	r15
     922:	0f 93       	push	r16
     924:	1f 93       	push	r17
     926:	cf 93       	push	r28
     928:	8c 01       	movw	r16, r24
     92a:	6a 01       	movw	r12, r20
     92c:	7b 01       	movw	r14, r22
     92e:	c2 2f       	mov	r28, r18
	float fAngle = angle * 0.016667;
     930:	2b e3       	ldi	r18, 0x3B	; 59
     932:	39 e8       	ldi	r19, 0x89	; 137
     934:	48 e8       	ldi	r20, 0x88	; 136
     936:	5c e3       	ldi	r21, 0x3C	; 60
     938:	c7 01       	movw	r24, r14
     93a:	b6 01       	movw	r22, r12
     93c:	0e 94 5c 09 	call	0x12b8	; 0x12b8 <__mulsf3>
     940:	4b 01       	movw	r8, r22
     942:	5c 01       	movw	r10, r24

	uint8_t c[3];
	if (angle < 60) {//max1
     944:	20 e0       	ldi	r18, 0x00	; 0
     946:	30 e0       	ldi	r19, 0x00	; 0
     948:	40 e7       	ldi	r20, 0x70	; 112
     94a:	52 e4       	ldi	r21, 0x42	; 66
     94c:	c7 01       	movw	r24, r14
     94e:	b6 01       	movw	r22, r12
     950:	0e 94 76 08 	call	0x10ec	; 0x10ec <__cmpsf2>
     954:	88 23       	and	r24, r24
     956:	94 f4       	brge	.+36     	; 0x97c <led_hsvToRGB+0x6a>
		float x2 = val * fAngle;
     958:	6c 2f       	mov	r22, r28
     95a:	70 e0       	ldi	r23, 0x00	; 0
     95c:	80 e0       	ldi	r24, 0x00	; 0
     95e:	90 e0       	ldi	r25, 0x00	; 0
     960:	0e 94 ac 08 	call	0x1158	; 0x1158 <__floatsisf>
     964:	9b 01       	movw	r18, r22
     966:	ac 01       	movw	r20, r24
     968:	c5 01       	movw	r24, r10
     96a:	b4 01       	movw	r22, r8
     96c:	0e 94 5c 09 	call	0x12b8	; 0x12b8 <__mulsf3>

		c[0] = val;
     970:	ec 2e       	mov	r14, r28
		c[1] = x2;
     972:	0e 94 7b 08 	call	0x10f6	; 0x10f6 <__fixunssfsi>
     976:	f6 2e       	mov	r15, r22
		c[2] = 0;
     978:	c0 e0       	ldi	r28, 0x00	; 0
     97a:	b1 c0       	rjmp	.+354    	; 0xade <led_hsvToRGB+0x1cc>
		} else if (angle < 120) {
     97c:	20 e0       	ldi	r18, 0x00	; 0
     97e:	30 e0       	ldi	r19, 0x00	; 0
     980:	40 ef       	ldi	r20, 0xF0	; 240
     982:	52 e4       	ldi	r21, 0x42	; 66
     984:	c7 01       	movw	r24, r14
     986:	b6 01       	movw	r22, r12
     988:	0e 94 76 08 	call	0x10ec	; 0x10ec <__cmpsf2>
     98c:	88 23       	and	r24, r24
     98e:	e4 f4       	brge	.+56     	; 0x9c8 <led_hsvToRGB+0xb6>
		float x2 = val * (2 - fAngle);//max 2
     990:	6c 2f       	mov	r22, r28
     992:	70 e0       	ldi	r23, 0x00	; 0
     994:	80 e0       	ldi	r24, 0x00	; 0
     996:	90 e0       	ldi	r25, 0x00	; 0
     998:	0e 94 ac 08 	call	0x1158	; 0x1158 <__floatsisf>
     99c:	6b 01       	movw	r12, r22
     99e:	7c 01       	movw	r14, r24
     9a0:	a5 01       	movw	r20, r10
     9a2:	94 01       	movw	r18, r8
     9a4:	60 e0       	ldi	r22, 0x00	; 0
     9a6:	70 e0       	ldi	r23, 0x00	; 0
     9a8:	80 e0       	ldi	r24, 0x00	; 0
     9aa:	90 e4       	ldi	r25, 0x40	; 64
     9ac:	0e 94 09 08 	call	0x1012	; 0x1012 <__subsf3>
     9b0:	9b 01       	movw	r18, r22
     9b2:	ac 01       	movw	r20, r24
     9b4:	c7 01       	movw	r24, r14
     9b6:	b6 01       	movw	r22, r12
     9b8:	0e 94 5c 09 	call	0x12b8	; 0x12b8 <__mulsf3>
		c[0] = x2;
     9bc:	0e 94 7b 08 	call	0x10f6	; 0x10f6 <__fixunssfsi>
     9c0:	e6 2e       	mov	r14, r22
		c[1] = val;
     9c2:	fc 2e       	mov	r15, r28
		c[2] = 0;
     9c4:	c0 e0       	ldi	r28, 0x00	; 0
     9c6:	8b c0       	rjmp	.+278    	; 0xade <led_hsvToRGB+0x1cc>
		} else if (angle < 180) {
     9c8:	20 e0       	ldi	r18, 0x00	; 0
     9ca:	30 e0       	ldi	r19, 0x00	; 0
     9cc:	44 e3       	ldi	r20, 0x34	; 52
     9ce:	53 e4       	ldi	r21, 0x43	; 67
     9d0:	c7 01       	movw	r24, r14
     9d2:	b6 01       	movw	r22, r12
     9d4:	0e 94 76 08 	call	0x10ec	; 0x10ec <__cmpsf2>
     9d8:	88 23       	and	r24, r24
     9da:	e4 f4       	brge	.+56     	; 0xa14 <led_hsvToRGB+0x102>
		float x2 = val * (fAngle - 2);//max 3
     9dc:	6c 2f       	mov	r22, r28
     9de:	70 e0       	ldi	r23, 0x00	; 0
     9e0:	80 e0       	ldi	r24, 0x00	; 0
     9e2:	90 e0       	ldi	r25, 0x00	; 0
     9e4:	0e 94 ac 08 	call	0x1158	; 0x1158 <__floatsisf>
     9e8:	6b 01       	movw	r12, r22
     9ea:	7c 01       	movw	r14, r24
     9ec:	20 e0       	ldi	r18, 0x00	; 0
     9ee:	30 e0       	ldi	r19, 0x00	; 0
     9f0:	40 e0       	ldi	r20, 0x00	; 0
     9f2:	50 e4       	ldi	r21, 0x40	; 64
     9f4:	c5 01       	movw	r24, r10
     9f6:	b4 01       	movw	r22, r8
     9f8:	0e 94 09 08 	call	0x1012	; 0x1012 <__subsf3>
     9fc:	9b 01       	movw	r18, r22
     9fe:	ac 01       	movw	r20, r24
     a00:	c7 01       	movw	r24, r14
     a02:	b6 01       	movw	r22, r12
     a04:	0e 94 5c 09 	call	0x12b8	; 0x12b8 <__mulsf3>
		c[0] = 0;
     a08:	e1 2c       	mov	r14, r1
		c[1] = val;
     a0a:	fc 2e       	mov	r15, r28
		c[2] = x2;
     a0c:	0e 94 7b 08 	call	0x10f6	; 0x10f6 <__fixunssfsi>
     a10:	c6 2f       	mov	r28, r22
     a12:	65 c0       	rjmp	.+202    	; 0xade <led_hsvToRGB+0x1cc>
		} else if (angle < 240) {
     a14:	20 e0       	ldi	r18, 0x00	; 0
     a16:	30 e0       	ldi	r19, 0x00	; 0
     a18:	40 e7       	ldi	r20, 0x70	; 112
     a1a:	53 e4       	ldi	r21, 0x43	; 67
     a1c:	c7 01       	movw	r24, r14
     a1e:	b6 01       	movw	r22, r12
     a20:	0e 94 76 08 	call	0x10ec	; 0x10ec <__cmpsf2>
     a24:	88 23       	and	r24, r24
     a26:	dc f4       	brge	.+54     	; 0xa5e <led_hsvToRGB+0x14c>
		float x2 = val * (4 - fAngle);//max 4
     a28:	6c 2f       	mov	r22, r28
     a2a:	70 e0       	ldi	r23, 0x00	; 0
     a2c:	80 e0       	ldi	r24, 0x00	; 0
     a2e:	90 e0       	ldi	r25, 0x00	; 0
     a30:	0e 94 ac 08 	call	0x1158	; 0x1158 <__floatsisf>
     a34:	6b 01       	movw	r12, r22
     a36:	7c 01       	movw	r14, r24
     a38:	a5 01       	movw	r20, r10
     a3a:	94 01       	movw	r18, r8
     a3c:	60 e0       	ldi	r22, 0x00	; 0
     a3e:	70 e0       	ldi	r23, 0x00	; 0
     a40:	80 e8       	ldi	r24, 0x80	; 128
     a42:	90 e4       	ldi	r25, 0x40	; 64
     a44:	0e 94 09 08 	call	0x1012	; 0x1012 <__subsf3>
     a48:	9b 01       	movw	r18, r22
     a4a:	ac 01       	movw	r20, r24
     a4c:	c7 01       	movw	r24, r14
     a4e:	b6 01       	movw	r22, r12
     a50:	0e 94 5c 09 	call	0x12b8	; 0x12b8 <__mulsf3>
		c[0] = 0;
     a54:	e1 2c       	mov	r14, r1
		c[1] = x2;
     a56:	0e 94 7b 08 	call	0x10f6	; 0x10f6 <__fixunssfsi>
     a5a:	f6 2e       	mov	r15, r22
     a5c:	40 c0       	rjmp	.+128    	; 0xade <led_hsvToRGB+0x1cc>
		c[2] = val;
		} else if (angle < 300) {
     a5e:	20 e0       	ldi	r18, 0x00	; 0
     a60:	30 e0       	ldi	r19, 0x00	; 0
     a62:	46 e9       	ldi	r20, 0x96	; 150
     a64:	53 e4       	ldi	r21, 0x43	; 67
     a66:	c7 01       	movw	r24, r14
     a68:	b6 01       	movw	r22, r12
     a6a:	0e 94 76 08 	call	0x10ec	; 0x10ec <__cmpsf2>
     a6e:	88 23       	and	r24, r24
     a70:	dc f4       	brge	.+54     	; 0xaa8 <led_hsvToRGB+0x196>
		float x2 = val * (fAngle - 4); //max 5
     a72:	6c 2f       	mov	r22, r28
     a74:	70 e0       	ldi	r23, 0x00	; 0
     a76:	80 e0       	ldi	r24, 0x00	; 0
     a78:	90 e0       	ldi	r25, 0x00	; 0
     a7a:	0e 94 ac 08 	call	0x1158	; 0x1158 <__floatsisf>
     a7e:	6b 01       	movw	r12, r22
     a80:	7c 01       	movw	r14, r24
     a82:	20 e0       	ldi	r18, 0x00	; 0
     a84:	30 e0       	ldi	r19, 0x00	; 0
     a86:	40 e8       	ldi	r20, 0x80	; 128
     a88:	50 e4       	ldi	r21, 0x40	; 64
     a8a:	c5 01       	movw	r24, r10
     a8c:	b4 01       	movw	r22, r8
     a8e:	0e 94 09 08 	call	0x1012	; 0x1012 <__subsf3>
     a92:	9b 01       	movw	r18, r22
     a94:	ac 01       	movw	r20, r24
     a96:	c7 01       	movw	r24, r14
     a98:	b6 01       	movw	r22, r12
     a9a:	0e 94 5c 09 	call	0x12b8	; 0x12b8 <__mulsf3>
		c[0] = x2;
     a9e:	0e 94 7b 08 	call	0x10f6	; 0x10f6 <__fixunssfsi>
     aa2:	e6 2e       	mov	r14, r22
		c[1] = 0;
     aa4:	f1 2c       	mov	r15, r1
     aa6:	1b c0       	rjmp	.+54     	; 0xade <led_hsvToRGB+0x1cc>
		c[2] = val;
		} else {
		float x2 = val * (6 - fAngle);//max 6
     aa8:	6c 2f       	mov	r22, r28
     aaa:	70 e0       	ldi	r23, 0x00	; 0
     aac:	80 e0       	ldi	r24, 0x00	; 0
     aae:	90 e0       	ldi	r25, 0x00	; 0
     ab0:	0e 94 ac 08 	call	0x1158	; 0x1158 <__floatsisf>
     ab4:	6b 01       	movw	r12, r22
     ab6:	7c 01       	movw	r14, r24
     ab8:	a5 01       	movw	r20, r10
     aba:	94 01       	movw	r18, r8
     abc:	60 e0       	ldi	r22, 0x00	; 0
     abe:	70 e0       	ldi	r23, 0x00	; 0
     ac0:	80 ec       	ldi	r24, 0xC0	; 192
     ac2:	90 e4       	ldi	r25, 0x40	; 64
     ac4:	0e 94 09 08 	call	0x1012	; 0x1012 <__subsf3>
     ac8:	9b 01       	movw	r18, r22
     aca:	ac 01       	movw	r20, r24
     acc:	c7 01       	movw	r24, r14
     ace:	b6 01       	movw	r22, r12
     ad0:	0e 94 5c 09 	call	0x12b8	; 0x12b8 <__mulsf3>
		c[0] = val;
     ad4:	ec 2e       	mov	r14, r28
		c[1] = 0;
     ad6:	f1 2c       	mov	r15, r1
		c[2] = x2;
     ad8:	0e 94 7b 08 	call	0x10f6	; 0x10f6 <__fixunssfsi>
     adc:	c6 2f       	mov	r28, r22
	}
	rgbBut->red.time = c[0];
     ade:	f8 01       	movw	r30, r16
     ae0:	e1 82       	std	Z+1, r14	; 0x01
	rgbBut->green.time = c[1];
     ae2:	f3 82       	std	Z+3, r15	; 0x03
	rgbBut->blue.time = c[2];
     ae4:	c5 83       	std	Z+5, r28	; 0x05
}
     ae6:	cf 91       	pop	r28
     ae8:	1f 91       	pop	r17
     aea:	0f 91       	pop	r16
     aec:	ff 90       	pop	r15
     aee:	ef 90       	pop	r14
     af0:	df 90       	pop	r13
     af2:	cf 90       	pop	r12
     af4:	bf 90       	pop	r11
     af6:	af 90       	pop	r10
     af8:	9f 90       	pop	r9
     afa:	8f 90       	pop	r8
     afc:	08 95       	ret

00000afe <led_rgbInit>:
void led_rgbInit() {
	rgbButtons[0].red.position = POS_LEDS1R;
     afe:	aa e9       	ldi	r26, 0x9A	; 154
     b00:	b8 e3       	ldi	r27, 0x38	; 56
     b02:	81 e0       	ldi	r24, 0x01	; 1
     b04:	8c 93       	st	X, r24
	leds[0].ledVal.position = POS_LEDS1R;
     b06:	ea e6       	ldi	r30, 0x6A	; 106
     b08:	f8 e3       	ldi	r31, 0x38	; 56
     b0a:	82 83       	std	Z+2, r24	; 0x02
	leds[0].newTime=&(rgbButtons[0].red.time);
     b0c:	8b e9       	ldi	r24, 0x9B	; 155
     b0e:	98 e3       	ldi	r25, 0x38	; 56
     b10:	80 83       	st	Z, r24
     b12:	91 83       	std	Z+1, r25	; 0x01
	rgbButtons[0].green.position = POS_LEDS1G;
     b14:	82 e0       	ldi	r24, 0x02	; 2
     b16:	12 96       	adiw	r26, 0x02	; 2
     b18:	8c 93       	st	X, r24
     b1a:	12 97       	sbiw	r26, 0x02	; 2
	leds[1].ledVal.position = POS_LEDS1G;
     b1c:	86 83       	std	Z+6, r24	; 0x06
	leds[1].newTime=&(rgbButtons[0].green.time);
     b1e:	8d e9       	ldi	r24, 0x9D	; 157
     b20:	98 e3       	ldi	r25, 0x38	; 56
     b22:	84 83       	std	Z+4, r24	; 0x04
     b24:	95 83       	std	Z+5, r25	; 0x05
	rgbButtons[0].blue.position = POS_LEDS1B;
     b26:	14 96       	adiw	r26, 0x04	; 4
     b28:	1c 92       	st	X, r1
     b2a:	14 97       	sbiw	r26, 0x04	; 4
	leds[2].ledVal.position = POS_LEDS1B;
     b2c:	12 86       	std	Z+10, r1	; 0x0a
	leds[2].newTime=&(rgbButtons[0].blue.time);
     b2e:	8f e9       	ldi	r24, 0x9F	; 159
     b30:	98 e3       	ldi	r25, 0x38	; 56
     b32:	80 87       	std	Z+8, r24	; 0x08
     b34:	91 87       	std	Z+9, r25	; 0x09

	rgbButtons[1].red.position = POS_LEDS2R;
     b36:	86 e0       	ldi	r24, 0x06	; 6
     b38:	16 96       	adiw	r26, 0x06	; 6
     b3a:	8c 93       	st	X, r24
     b3c:	16 97       	sbiw	r26, 0x06	; 6
	leds[3].ledVal.position = POS_LEDS2R;
     b3e:	86 87       	std	Z+14, r24	; 0x0e
	leds[3].newTime=&(rgbButtons[1].red.time);
     b40:	81 ea       	ldi	r24, 0xA1	; 161
     b42:	98 e3       	ldi	r25, 0x38	; 56
     b44:	84 87       	std	Z+12, r24	; 0x0c
     b46:	95 87       	std	Z+13, r25	; 0x0d
	rgbButtons[1].green.position = POS_LEDS2G;
     b48:	87 e0       	ldi	r24, 0x07	; 7
     b4a:	18 96       	adiw	r26, 0x08	; 8
     b4c:	8c 93       	st	X, r24
     b4e:	18 97       	sbiw	r26, 0x08	; 8
	leds[4].ledVal.position = POS_LEDS2G;
     b50:	82 8b       	std	Z+18, r24	; 0x12
	leds[4].newTime=&(rgbButtons[1].green.time);
     b52:	83 ea       	ldi	r24, 0xA3	; 163
     b54:	98 e3       	ldi	r25, 0x38	; 56
     b56:	80 8b       	std	Z+16, r24	; 0x10
     b58:	91 8b       	std	Z+17, r25	; 0x11
	rgbButtons[1].blue.position = POS_LEDS2B;
     b5a:	85 e0       	ldi	r24, 0x05	; 5
     b5c:	1a 96       	adiw	r26, 0x0a	; 10
     b5e:	8c 93       	st	X, r24
     b60:	1a 97       	sbiw	r26, 0x0a	; 10
	leds[5].ledVal.position = POS_LEDS2B;
     b62:	86 8b       	std	Z+22, r24	; 0x16
	leds[5].newTime=&(rgbButtons[1].blue.time);
     b64:	85 ea       	ldi	r24, 0xA5	; 165
     b66:	98 e3       	ldi	r25, 0x38	; 56
     b68:	84 8b       	std	Z+20, r24	; 0x14
     b6a:	95 8b       	std	Z+21, r25	; 0x15

	rgbButtons[2].red.position = POS_LEDS3R;
     b6c:	89 e0       	ldi	r24, 0x09	; 9
     b6e:	1c 96       	adiw	r26, 0x0c	; 12
     b70:	8c 93       	st	X, r24
     b72:	1c 97       	sbiw	r26, 0x0c	; 12
	leds[6].ledVal.position = POS_LEDS3R;
     b74:	82 8f       	std	Z+26, r24	; 0x1a
	leds[6].newTime=&(rgbButtons[2].red.time);
     b76:	87 ea       	ldi	r24, 0xA7	; 167
     b78:	98 e3       	ldi	r25, 0x38	; 56
     b7a:	80 8f       	std	Z+24, r24	; 0x18
     b7c:	91 8f       	std	Z+25, r25	; 0x19
	rgbButtons[2].green.position = POS_LEDS3G;
     b7e:	8a e0       	ldi	r24, 0x0A	; 10
     b80:	1e 96       	adiw	r26, 0x0e	; 14
     b82:	8c 93       	st	X, r24
     b84:	1e 97       	sbiw	r26, 0x0e	; 14
	leds[7].ledVal.position = POS_LEDS3G;
     b86:	86 8f       	std	Z+30, r24	; 0x1e
	leds[7].newTime=&(rgbButtons[2].green.time);
     b88:	89 ea       	ldi	r24, 0xA9	; 169
     b8a:	98 e3       	ldi	r25, 0x38	; 56
     b8c:	84 8f       	std	Z+28, r24	; 0x1c
     b8e:	95 8f       	std	Z+29, r25	; 0x1d
	rgbButtons[2].blue.position = POS_LEDS3B;
     b90:	88 e0       	ldi	r24, 0x08	; 8
     b92:	50 96       	adiw	r26, 0x10	; 16
     b94:	8c 93       	st	X, r24
     b96:	50 97       	sbiw	r26, 0x10	; 16
	leds[8].ledVal.position = POS_LEDS3B;
     b98:	82 a3       	std	Z+34, r24	; 0x22
	leds[8].newTime=&(rgbButtons[2].blue.time);
     b9a:	8b ea       	ldi	r24, 0xAB	; 171
     b9c:	98 e3       	ldi	r25, 0x38	; 56
     b9e:	80 a3       	std	Z+32, r24	; 0x20
     ba0:	91 a3       	std	Z+33, r25	; 0x21

	rgbButtons[3].red.position = POS_LEDS4R;
     ba2:	8e e0       	ldi	r24, 0x0E	; 14
     ba4:	52 96       	adiw	r26, 0x12	; 18
     ba6:	8c 93       	st	X, r24
     ba8:	52 97       	sbiw	r26, 0x12	; 18
	leds[9].ledVal.position = POS_LEDS4R;
     baa:	86 a3       	std	Z+38, r24	; 0x26
	leds[9].newTime=&(rgbButtons[3].red.time);
     bac:	8d ea       	ldi	r24, 0xAD	; 173
     bae:	98 e3       	ldi	r25, 0x38	; 56
     bb0:	84 a3       	std	Z+36, r24	; 0x24
     bb2:	95 a3       	std	Z+37, r25	; 0x25
	rgbButtons[3].green.position = POS_LEDS4G;
     bb4:	8f e0       	ldi	r24, 0x0F	; 15
     bb6:	54 96       	adiw	r26, 0x14	; 20
     bb8:	8c 93       	st	X, r24
     bba:	54 97       	sbiw	r26, 0x14	; 20
	leds[10].ledVal.position = POS_LEDS4G;
     bbc:	82 a7       	std	Z+42, r24	; 0x2a
	leds[10].newTime=&(rgbButtons[3].green.time);
     bbe:	8f ea       	ldi	r24, 0xAF	; 175
     bc0:	98 e3       	ldi	r25, 0x38	; 56
     bc2:	80 a7       	std	Z+40, r24	; 0x28
     bc4:	91 a7       	std	Z+41, r25	; 0x29
	rgbButtons[3].blue.position = POS_LEDS4B;
     bc6:	8d e0       	ldi	r24, 0x0D	; 13
     bc8:	56 96       	adiw	r26, 0x16	; 22
     bca:	8c 93       	st	X, r24
	leds[11].ledVal.position = POS_LEDS4B;
     bcc:	86 a7       	std	Z+46, r24	; 0x2e
	leds[11].newTime=&(rgbButtons[3].blue.time);
     bce:	81 eb       	ldi	r24, 0xB1	; 177
     bd0:	98 e3       	ldi	r25, 0x38	; 56
     bd2:	84 a7       	std	Z+44, r24	; 0x2c
     bd4:	95 a7       	std	Z+45, r25	; 0x2d


	ledEventsUpdate[0].shiftVal=0;
     bd6:	e2 e2       	ldi	r30, 0x22	; 34
     bd8:	f8 e3       	ldi	r31, 0x38	; 56
     bda:	10 82       	st	Z, r1
     bdc:	11 82       	std	Z+1, r1	; 0x01
	ledEventsUpdate[0].time=0;
     bde:	12 82       	std	Z+2, r1	; 0x02
     be0:	08 95       	ret

00000be2 <led_updateColorSystem>:
}

//http://alienryderflex.com/quicksort/
void led_updateColorSystem() {
	//exchange values in led array
	for (int i = 0; i < 12; i++) {
     be2:	80 e0       	ldi	r24, 0x00	; 0
     be4:	90 e0       	ldi	r25, 0x00	; 0
     be6:	0c c0       	rjmp	.+24     	; 0xc00 <led_updateColorSystem+0x1e>
		//the l
		leds[i].ledVal.time=*leds[i].newTime;
     be8:	fc 01       	movw	r30, r24
     bea:	ee 0f       	add	r30, r30
     bec:	ff 1f       	adc	r31, r31
     bee:	ee 0f       	add	r30, r30
     bf0:	ff 1f       	adc	r31, r31
     bf2:	e6 59       	subi	r30, 0x96	; 150
     bf4:	f7 4c       	sbci	r31, 0xC7	; 199
     bf6:	a0 81       	ld	r26, Z
     bf8:	b1 81       	ldd	r27, Z+1	; 0x01
     bfa:	2c 91       	ld	r18, X
     bfc:	23 83       	std	Z+3, r18	; 0x03
}

//http://alienryderflex.com/quicksort/
void led_updateColorSystem() {
	//exchange values in led array
	for (int i = 0; i < 12; i++) {
     bfe:	01 96       	adiw	r24, 0x01	; 1
     c00:	8c 30       	cpi	r24, 0x0C	; 12
     c02:	91 05       	cpc	r25, r1
     c04:	8c f3       	brlt	.-30     	; 0xbe8 <led_updateColorSystem+0x6>
		//the l
		leds[i].ledVal.time=*leds[i].newTime;
	}
	//sort the leds by their time value
	qsort(leds, 12, sizeof(ledStruct), led_Compare);
     c06:	2c e3       	ldi	r18, 0x3C	; 60
     c08:	34 e0       	ldi	r19, 0x04	; 4
     c0a:	44 e0       	ldi	r20, 0x04	; 4
     c0c:	50 e0       	ldi	r21, 0x00	; 0
     c0e:	6c e0       	ldi	r22, 0x0C	; 12
     c10:	70 e0       	ldi	r23, 0x00	; 0
     c12:	8a e6       	ldi	r24, 0x6A	; 106
     c14:	98 e3       	ldi	r25, 0x38	; 56
     c16:	0e 94 1c 0a 	call	0x1438	; 0x1438 <qsort>
	uint16_t shift = 0b1110011111100111;
	nLedEventUpdate = 0;
     c1a:	10 92 01 38 	sts	0x3801, r1	; 0x803801 <nLedEventUpdate>
	ledEventsUpdate[0].time=0;
     c1e:	10 92 24 38 	sts	0x3824, r1	; 0x803824 <ledEventsUpdate+0x2>
	//combining time events to shift values
	//it's smaller then 255 because 255 is full on already
	for (int i = 0; i < 12 && leds[i].ledVal.time < 255; i++) {
     c22:	20 e0       	ldi	r18, 0x00	; 0
     c24:	30 e0       	ldi	r19, 0x00	; 0
		//the l
		leds[i].ledVal.time=*leds[i].newTime;
	}
	//sort the leds by their time value
	qsort(leds, 12, sizeof(ledStruct), led_Compare);
	uint16_t shift = 0b1110011111100111;
     c26:	47 ee       	ldi	r20, 0xE7	; 231
     c28:	57 ee       	ldi	r21, 0xE7	; 231
	nLedEventUpdate = 0;
	ledEventsUpdate[0].time=0;
	//combining time events to shift values
	//it's smaller then 255 because 255 is full on already
	for (int i = 0; i < 12 && leds[i].ledVal.time < 255; i++) {
     c2a:	3e c0       	rjmp	.+124    	; 0xca8 <led_updateColorSystem+0xc6>
		if (leds[i].ledVal.time > ledEventsUpdate[nLedEventUpdate].time) {
     c2c:	80 91 01 38 	lds	r24, 0x3801	; 0x803801 <nLedEventUpdate>
     c30:	68 2f       	mov	r22, r24
     c32:	70 e0       	ldi	r23, 0x00	; 0
     c34:	fb 01       	movw	r30, r22
     c36:	ee 0f       	add	r30, r30
     c38:	ff 1f       	adc	r31, r31
     c3a:	6e 0f       	add	r22, r30
     c3c:	7f 1f       	adc	r23, r31
     c3e:	fb 01       	movw	r30, r22
     c40:	ee 5d       	subi	r30, 0xDE	; 222
     c42:	f7 4c       	sbci	r31, 0xC7	; 199
     c44:	92 81       	ldd	r25, Z+2	; 0x02
     c46:	9a 17       	cp	r25, r26
     c48:	68 f4       	brcc	.+26     	; 0xc64 <led_updateColorSystem+0x82>
			//we have a new time event
			nLedEventUpdate++;
     c4a:	8f 5f       	subi	r24, 0xFF	; 255
     c4c:	80 93 01 38 	sts	0x3801, r24	; 0x803801 <nLedEventUpdate>
			ledEventsUpdate[nLedEventUpdate].time = leds[i].ledVal.time;
     c50:	90 e0       	ldi	r25, 0x00	; 0
     c52:	fc 01       	movw	r30, r24
     c54:	ee 0f       	add	r30, r30
     c56:	ff 1f       	adc	r31, r31
     c58:	8e 0f       	add	r24, r30
     c5a:	9f 1f       	adc	r25, r31
     c5c:	fc 01       	movw	r30, r24
     c5e:	ee 5d       	subi	r30, 0xDE	; 222
     c60:	f7 4c       	sbci	r31, 0xC7	; 199
     c62:	a2 83       	std	Z+2, r26	; 0x02
		}
		//if bit is cleared led will be switched off at this time
		BIT_CLEAR(shift, leds[i].ledVal.position);
     c64:	f9 01       	movw	r30, r18
     c66:	ee 0f       	add	r30, r30
     c68:	ff 1f       	adc	r31, r31
     c6a:	ee 0f       	add	r30, r30
     c6c:	ff 1f       	adc	r31, r31
     c6e:	e6 59       	subi	r30, 0x96	; 150
     c70:	f7 4c       	sbci	r31, 0xC7	; 199
     c72:	81 e0       	ldi	r24, 0x01	; 1
     c74:	90 e0       	ldi	r25, 0x00	; 0
     c76:	02 80       	ldd	r0, Z+2	; 0x02
     c78:	02 c0       	rjmp	.+4      	; 0xc7e <led_updateColorSystem+0x9c>
     c7a:	88 0f       	add	r24, r24
     c7c:	99 1f       	adc	r25, r25
     c7e:	0a 94       	dec	r0
     c80:	e2 f7       	brpl	.-8      	; 0xc7a <led_updateColorSystem+0x98>
     c82:	80 95       	com	r24
     c84:	90 95       	com	r25
     c86:	48 23       	and	r20, r24
     c88:	59 23       	and	r21, r25
		ledEventsUpdate[nLedEventUpdate].shiftVal = shift;
     c8a:	80 91 01 38 	lds	r24, 0x3801	; 0x803801 <nLedEventUpdate>
     c8e:	90 e0       	ldi	r25, 0x00	; 0
     c90:	fc 01       	movw	r30, r24
     c92:	ee 0f       	add	r30, r30
     c94:	ff 1f       	adc	r31, r31
     c96:	8e 0f       	add	r24, r30
     c98:	9f 1f       	adc	r25, r31
     c9a:	fc 01       	movw	r30, r24
     c9c:	ee 5d       	subi	r30, 0xDE	; 222
     c9e:	f7 4c       	sbci	r31, 0xC7	; 199
     ca0:	40 83       	st	Z, r20
     ca2:	51 83       	std	Z+1, r21	; 0x01
	uint16_t shift = 0b1110011111100111;
	nLedEventUpdate = 0;
	ledEventsUpdate[0].time=0;
	//combining time events to shift values
	//it's smaller then 255 because 255 is full on already
	for (int i = 0; i < 12 && leds[i].ledVal.time < 255; i++) {
     ca4:	2f 5f       	subi	r18, 0xFF	; 255
     ca6:	3f 4f       	sbci	r19, 0xFF	; 255
     ca8:	2c 30       	cpi	r18, 0x0C	; 12
     caa:	31 05       	cpc	r19, r1
     cac:	5c f4       	brge	.+22     	; 0xcc4 <led_updateColorSystem+0xe2>
     cae:	f9 01       	movw	r30, r18
     cb0:	ee 0f       	add	r30, r30
     cb2:	ff 1f       	adc	r31, r31
     cb4:	ee 0f       	add	r30, r30
     cb6:	ff 1f       	adc	r31, r31
     cb8:	e6 59       	subi	r30, 0x96	; 150
     cba:	f7 4c       	sbci	r31, 0xC7	; 199
     cbc:	a3 81       	ldd	r26, Z+3	; 0x03
     cbe:	af 3f       	cpi	r26, 0xFF	; 255
     cc0:	09 f0       	breq	.+2      	; 0xcc4 <led_updateColorSystem+0xe2>
     cc2:	b4 cf       	rjmp	.-152    	; 0xc2c <led_updateColorSystem+0x4a>
		}
		//if bit is cleared led will be switched off at this time
		BIT_CLEAR(shift, leds[i].ledVal.position);
		ledEventsUpdate[nLedEventUpdate].shiftVal = shift;
	}
	nLedEventUpdate++;
     cc4:	50 91 01 38 	lds	r21, 0x3801	; 0x803801 <nLedEventUpdate>
     cc8:	5f 5f       	subi	r21, 0xFF	; 255
     cca:	50 93 01 38 	sts	0x3801, r21	; 0x803801 <nLedEventUpdate>
	}
#endif

	//building the delta between send events
	uint8_t lastTime = 0;
		for (int i = 0; i < nLedEventUpdate; i++) {
     cce:	80 e0       	ldi	r24, 0x00	; 0
     cd0:	90 e0       	ldi	r25, 0x00	; 0
		printf("%d	%04X\n", ledEventsUpdate[i].time, ledEventsUpdate[i].shiftVal);
	}
#endif

	//building the delta between send events
	uint8_t lastTime = 0;
     cd2:	40 e0       	ldi	r20, 0x00	; 0
		for (int i = 0; i < nLedEventUpdate; i++) {
     cd4:	2f c0       	rjmp	.+94     	; 0xd34 <led_updateColorSystem+0x152>
			//the last event is untill 255
			if (i == (nLedEventUpdate - 1))
     cd6:	21 50       	subi	r18, 0x01	; 1
     cd8:	31 09       	sbc	r19, r1
     cda:	82 17       	cp	r24, r18
     cdc:	93 07       	cpc	r25, r19
     cde:	59 f4       	brne	.+22     	; 0xcf6 <led_updateColorSystem+0x114>
				ledEventsUpdate[i].time = 255 - lastTime;
     ce0:	fc 01       	movw	r30, r24
     ce2:	ee 0f       	add	r30, r30
     ce4:	ff 1f       	adc	r31, r31
     ce6:	e8 0f       	add	r30, r24
     ce8:	f9 1f       	adc	r31, r25
     cea:	ee 5d       	subi	r30, 0xDE	; 222
     cec:	f7 4c       	sbci	r31, 0xC7	; 199
     cee:	24 2f       	mov	r18, r20
     cf0:	20 95       	com	r18
     cf2:	22 83       	std	Z+2, r18	; 0x02
     cf4:	15 c0       	rjmp	.+42     	; 0xd20 <led_updateColorSystem+0x13e>
			else
				ledEventsUpdate[i].time = ledEventsUpdate[i + 1].time - lastTime;
     cf6:	9c 01       	movw	r18, r24
     cf8:	2f 5f       	subi	r18, 0xFF	; 255
     cfa:	3f 4f       	sbci	r19, 0xFF	; 255
     cfc:	f9 01       	movw	r30, r18
     cfe:	ee 0f       	add	r30, r30
     d00:	ff 1f       	adc	r31, r31
     d02:	2e 0f       	add	r18, r30
     d04:	3f 1f       	adc	r19, r31
     d06:	f9 01       	movw	r30, r18
     d08:	ee 5d       	subi	r30, 0xDE	; 222
     d0a:	f7 4c       	sbci	r31, 0xC7	; 199
     d0c:	22 81       	ldd	r18, Z+2	; 0x02
     d0e:	fc 01       	movw	r30, r24
     d10:	ee 0f       	add	r30, r30
     d12:	ff 1f       	adc	r31, r31
     d14:	e8 0f       	add	r30, r24
     d16:	f9 1f       	adc	r31, r25
     d18:	ee 5d       	subi	r30, 0xDE	; 222
     d1a:	f7 4c       	sbci	r31, 0xC7	; 199
     d1c:	24 1b       	sub	r18, r20
     d1e:	22 83       	std	Z+2, r18	; 0x02
			lastTime += ledEventsUpdate[i].time;
     d20:	fc 01       	movw	r30, r24
     d22:	ee 0f       	add	r30, r30
     d24:	ff 1f       	adc	r31, r31
     d26:	e8 0f       	add	r30, r24
     d28:	f9 1f       	adc	r31, r25
     d2a:	ee 5d       	subi	r30, 0xDE	; 222
     d2c:	f7 4c       	sbci	r31, 0xC7	; 199
     d2e:	22 81       	ldd	r18, Z+2	; 0x02
     d30:	42 0f       	add	r20, r18
	}
#endif

	//building the delta between send events
	uint8_t lastTime = 0;
		for (int i = 0; i < nLedEventUpdate; i++) {
     d32:	01 96       	adiw	r24, 0x01	; 1
     d34:	25 2f       	mov	r18, r21
     d36:	30 e0       	ldi	r19, 0x00	; 0
     d38:	82 17       	cp	r24, r18
     d3a:	93 07       	cpc	r25, r19
     d3c:	64 f2       	brlt	.-104    	; 0xcd6 <led_updateColorSystem+0xf4>
#ifdef ECLIPSE_DEBUG
	for (int i = 0; i < nLedEventUpdate; i++) {
		printf("%d	%04X\n", ledEventsUpdate[i].time, ledEventsUpdate[i].shiftVal);
	}
#endif
}
     d3e:	08 95       	ret

00000d40 <led_updateRGB>:
	ledEvent retVal = ledEvents[iLedEvent];
	iLedEvent++;
	iLedEvent %= nLedEvent;
	return retVal;
}
void led_updateRGB(uint8_t number, uint16_t angle, uint8_t value) {
     d40:	1f 93       	push	r17
     d42:	cf 93       	push	r28
     d44:	df 93       	push	r29
     d46:	14 2f       	mov	r17, r20
	led_hsvToRGB(&rgbButtons[number], (float) angle, value);
     d48:	c8 2f       	mov	r28, r24
     d4a:	d0 e0       	ldi	r29, 0x00	; 0
     d4c:	80 e0       	ldi	r24, 0x00	; 0
     d4e:	90 e0       	ldi	r25, 0x00	; 0
     d50:	0e 94 aa 08 	call	0x1154	; 0x1154 <__floatunsisf>
     d54:	ab 01       	movw	r20, r22
     d56:	bc 01       	movw	r22, r24
     d58:	ce 01       	movw	r24, r28
     d5a:	88 0f       	add	r24, r24
     d5c:	99 1f       	adc	r25, r25
     d5e:	8c 0f       	add	r24, r28
     d60:	9d 1f       	adc	r25, r29
     d62:	88 0f       	add	r24, r24
     d64:	99 1f       	adc	r25, r25
     d66:	21 2f       	mov	r18, r17
     d68:	86 56       	subi	r24, 0x66	; 102
     d6a:	97 4c       	sbci	r25, 0xC7	; 199
     d6c:	0e 94 89 04 	call	0x912	; 0x912 <led_hsvToRGB>
	led_updateColorSystem();
     d70:	0e 94 f1 05 	call	0xbe2	; 0xbe2 <led_updateColorSystem>
	//We have a new version for our shift register
	ptrLedEvents=ledEventsUpdate;
     d74:	82 e2       	ldi	r24, 0x22	; 34
     d76:	98 e3       	ldi	r25, 0x38	; 56
     d78:	80 93 11 38 	sts	0x3811, r24	; 0x803811 <ptrLedEvents>
     d7c:	90 93 12 38 	sts	0x3812, r25	; 0x803812 <ptrLedEvents+0x1>
}
     d80:	df 91       	pop	r29
     d82:	cf 91       	pop	r28
     d84:	1f 91       	pop	r17
     d86:	08 95       	ret

00000d88 <led_init>:
		SPI0.DATA = (uint8_t) ((data >> 8) & 0xFF);
		SPI0.DATA = (uint8_t) data;
	}
}
void led_init() {
	BITMASK_SET(LED_SHD_PT.DIR, (1<<LED_SHD_BP)|(1<<LED_SHC_BP));
     d88:	e0 e0       	ldi	r30, 0x00	; 0
     d8a:	f4 e0       	ldi	r31, 0x04	; 4
     d8c:	80 81       	ld	r24, Z
     d8e:	8a 60       	ori	r24, 0x0A	; 10
     d90:	80 83       	st	Z, r24
	BIT_SET(LED_SHU_PT.DIR, LED_SHU_BP);
     d92:	e0 e2       	ldi	r30, 0x20	; 32
     d94:	f4 e0       	ldi	r31, 0x04	; 4
     d96:	80 81       	ld	r24, Z
     d98:	84 60       	ori	r24, 0x04	; 4
     d9a:	80 83       	st	Z, r24
	SPI0.CTRLA = SPI_MASTER_bm | SPI_PRESC_DIV4_gc;
     d9c:	e0 ec       	ldi	r30, 0xC0	; 192
     d9e:	f8 e0       	ldi	r31, 0x08	; 8
     da0:	80 e2       	ldi	r24, 0x20	; 32
     da2:	80 83       	st	Z, r24
	SPI0.CTRLB = SPI_BUFEN_bm | SPI_SSD_bm;
     da4:	84 e8       	ldi	r24, 0x84	; 132
     da6:	81 83       	std	Z+1, r24	; 0x01
	SPI0.CTRLA |= SPI_ENABLE_bm;
     da8:	80 81       	ld	r24, Z
     daa:	81 60       	ori	r24, 0x01	; 1
     dac:	80 83       	st	Z, r24
	led_rgbInit();
     dae:	0e 94 7f 05 	call	0xafe	; 0xafe <led_rgbInit>
	led_updateRGB(0,0,0);
     db2:	40 e0       	ldi	r20, 0x00	; 0
     db4:	60 e0       	ldi	r22, 0x00	; 0
     db6:	70 e0       	ldi	r23, 0x00	; 0
     db8:	80 e0       	ldi	r24, 0x00	; 0
     dba:	0e 94 a0 06 	call	0xd40	; 0xd40 <led_updateRGB>
	led_updateRGB(1,0,0);
     dbe:	40 e0       	ldi	r20, 0x00	; 0
     dc0:	60 e0       	ldi	r22, 0x00	; 0
     dc2:	70 e0       	ldi	r23, 0x00	; 0
     dc4:	81 e0       	ldi	r24, 0x01	; 1
     dc6:	0e 94 a0 06 	call	0xd40	; 0xd40 <led_updateRGB>
	led_updateRGB(2,0,0);
     dca:	40 e0       	ldi	r20, 0x00	; 0
     dcc:	60 e0       	ldi	r22, 0x00	; 0
     dce:	70 e0       	ldi	r23, 0x00	; 0
     dd0:	82 e0       	ldi	r24, 0x02	; 2
     dd2:	0e 94 a0 06 	call	0xd40	; 0xd40 <led_updateRGB>
	led_updateRGB(3,0,0);
     dd6:	40 e0       	ldi	r20, 0x00	; 0
     dd8:	60 e0       	ldi	r22, 0x00	; 0
     dda:	70 e0       	ldi	r23, 0x00	; 0
     ddc:	83 e0       	ldi	r24, 0x03	; 3
     dde:	0e 94 a0 06 	call	0xd40	; 0xd40 <led_updateRGB>
     de2:	08 95       	ret

00000de4 <i2c_init>:
 8. Enable the SPI by writing a 1 to the ENABLE bit in SPIn.CTRLA.
 */
 void i2c_init()
 {
	 uint8_t addr=8;
	 TWI0.SADDR = addr|0x01;				//Slave address & enable general call
     de4:	e0 ea       	ldi	r30, 0xA0	; 160
     de6:	f8 e0       	ldi	r31, 0x08	; 8
     de8:	89 e0       	ldi	r24, 0x09	; 9
     dea:	84 87       	std	Z+12, r24	; 0x0c
	 TWI0.SCTRLA = TWI_ENABLE_bm |	    //Enable slave peripheral
     dec:	83 ee       	ldi	r24, 0xE3	; 227
     dee:	81 87       	std	Z+9, r24	; 0x09
	 TWI_APIEN_bm |		//Enable address match interrupt
	 TWI_PIEN_bm |			//Enable stop interrupt
	 TWI_DIEN_bm |			//Enable data interrupt
	 TWI_SMEN_bm;			//Enable smart mode
	 orderBuffer[0].order=ordRgb0;
     df0:	e2 eb       	ldi	r30, 0xB2	; 178
     df2:	f8 e3       	ldi	r31, 0x38	; 56
     df4:	81 e0       	ldi	r24, 0x01	; 1
     df6:	80 83       	st	Z, r24
	 orderBuffer[1].order=ordRgb1;
     df8:	82 e0       	ldi	r24, 0x02	; 2
     dfa:	84 83       	std	Z+4, r24	; 0x04
	 orderBuffer[2].order=ordRgb2;
     dfc:	83 e0       	ldi	r24, 0x03	; 3
     dfe:	80 87       	std	Z+8, r24	; 0x08
	 orderBuffer[3].order=ordRgb3;
     e00:	84 e0       	ldi	r24, 0x04	; 4
     e02:	84 87       	std	Z+12, r24	; 0x0c
     e04:	08 95       	ret

00000e06 <i2c_set_message>:
 }

 void i2c_set_message(uint8_t msg){
     e06:	e8 2f       	mov	r30, r24
	 if(BITMASK_CHECK_ALL(msg,I2C_MSG_FIRST_bm)){
     e08:	88 23       	and	r24, r24
     e0a:	0c f0       	brlt	.+2      	; 0xe0e <i2c_set_message+0x8>
     e0c:	53 c0       	rjmp	.+166    	; 0xeb4 <i2c_set_message+0xae>
		 BITMASK_CLEAR(msg,I2C_MSG_FIRST_bm);
     e0e:	ef 77       	andi	r30, 0x7F	; 127
		 i_txBuffer=0;
     e10:	10 92 14 38 	sts	0x3814, r1	; 0x803814 <i_txBuffer>
		 n_rxBuffer=0;
     e14:	10 92 15 38 	sts	0x3815, r1	; 0x803815 <n_rxBuffer>
		 s_orderBuffer=-1;
     e18:	8f ef       	ldi	r24, 0xFF	; 255
     e1a:	80 93 02 38 	sts	0x3802, r24	; 0x803802 <s_orderBuffer>
		 switch(msg){
     e1e:	8e 2f       	mov	r24, r30
     e20:	90 e0       	ldi	r25, 0x00	; 0
     e22:	fc 01       	movw	r30, r24
     e24:	3b 97       	sbiw	r30, 0x0b	; 11
     e26:	ee 34       	cpi	r30, 0x4E	; 78
     e28:	f1 05       	cpc	r31, r1
     e2a:	08 f0       	brcs	.+2      	; 0xe2e <i2c_set_message+0x28>
     e2c:	6e c0       	rjmp	.+220    	; 0xf0a <i2c_set_message+0x104>
     e2e:	e4 5c       	subi	r30, 0xC4	; 196
     e30:	ff 4f       	sbci	r31, 0xFF	; 255
     e32:	0c 94 d5 09 	jmp	0x13aa	; 0x13aa <__tablejump2__>
			 case rqstADC0:
			 state=stateADC0;
     e36:	81 e0       	ldi	r24, 0x01	; 1
     e38:	80 93 16 38 	sts	0x3816, r24	; 0x803816 <state>
			 break;
     e3c:	08 95       	ret
			 case rqstADC1:
			 state=stateADC1;
     e3e:	84 e0       	ldi	r24, 0x04	; 4
     e40:	80 93 16 38 	sts	0x3816, r24	; 0x803816 <state>
			 break;
     e44:	08 95       	ret
			 case rqstENC:
			 state=stateEnc;
     e46:	82 e0       	ldi	r24, 0x02	; 2
     e48:	80 93 16 38 	sts	0x3816, r24	; 0x803816 <state>
			 break;
     e4c:	08 95       	ret
			 case rqstBUT:
			 state=stateBut;
     e4e:	83 e0       	ldi	r24, 0x03	; 3
     e50:	80 93 16 38 	sts	0x3816, r24	; 0x803816 <state>
			 break;
     e54:	08 95       	ret
			 case setRGB0:
			 s_orderBuffer=0;
     e56:	10 92 02 38 	sts	0x3802, r1	; 0x803802 <s_orderBuffer>
			 BITMASK_CLEAR(orderBuffer[s_orderBuffer].order,I2C_ORDER_READY_bm);
     e5a:	e2 eb       	ldi	r30, 0xB2	; 178
     e5c:	f8 e3       	ldi	r31, 0x38	; 56
     e5e:	80 81       	ld	r24, Z
     e60:	8f 77       	andi	r24, 0x7F	; 127
     e62:	80 83       	st	Z, r24
			 state=stateRGB0;
     e64:	85 e0       	ldi	r24, 0x05	; 5
     e66:	80 93 16 38 	sts	0x3816, r24	; 0x803816 <state>
			 break;
     e6a:	08 95       	ret
			 case setRGB1:
			 s_orderBuffer=1;
     e6c:	81 e0       	ldi	r24, 0x01	; 1
     e6e:	80 93 02 38 	sts	0x3802, r24	; 0x803802 <s_orderBuffer>
			 BITMASK_CLEAR(orderBuffer[s_orderBuffer].order,I2C_ORDER_READY_bm);
     e72:	e2 eb       	ldi	r30, 0xB2	; 178
     e74:	f8 e3       	ldi	r31, 0x38	; 56
     e76:	84 81       	ldd	r24, Z+4	; 0x04
     e78:	8f 77       	andi	r24, 0x7F	; 127
     e7a:	84 83       	std	Z+4, r24	; 0x04
			 state=stateRGB1;
     e7c:	86 e0       	ldi	r24, 0x06	; 6
     e7e:	80 93 16 38 	sts	0x3816, r24	; 0x803816 <state>
			 break;
     e82:	08 95       	ret
			 case setRGB2:
			 s_orderBuffer=2;
     e84:	82 e0       	ldi	r24, 0x02	; 2
     e86:	80 93 02 38 	sts	0x3802, r24	; 0x803802 <s_orderBuffer>
			 BITMASK_CLEAR(orderBuffer[s_orderBuffer].order,I2C_ORDER_READY_bm);
     e8a:	e2 eb       	ldi	r30, 0xB2	; 178
     e8c:	f8 e3       	ldi	r31, 0x38	; 56
     e8e:	80 85       	ldd	r24, Z+8	; 0x08
     e90:	8f 77       	andi	r24, 0x7F	; 127
     e92:	80 87       	std	Z+8, r24	; 0x08
			 state=stateRGB2;
     e94:	87 e0       	ldi	r24, 0x07	; 7
     e96:	80 93 16 38 	sts	0x3816, r24	; 0x803816 <state>
			 break;
     e9a:	08 95       	ret
			 case setRGB3:
			 s_orderBuffer=3;
     e9c:	83 e0       	ldi	r24, 0x03	; 3
     e9e:	80 93 02 38 	sts	0x3802, r24	; 0x803802 <s_orderBuffer>
			 BITMASK_CLEAR(orderBuffer[s_orderBuffer].order,I2C_ORDER_READY_bm);
     ea2:	e2 eb       	ldi	r30, 0xB2	; 178
     ea4:	f8 e3       	ldi	r31, 0x38	; 56
     ea6:	84 85       	ldd	r24, Z+12	; 0x0c
     ea8:	8f 77       	andi	r24, 0x7F	; 127
     eaa:	84 87       	std	Z+12, r24	; 0x0c
			 state=stateRGB3;
     eac:	88 e0       	ldi	r24, 0x08	; 8
     eae:	80 93 16 38 	sts	0x3816, r24	; 0x803816 <state>
			 break;
     eb2:	08 95       	ret
		 }
		 }else{
		 switch(state){
     eb4:	80 91 16 38 	lds	r24, 0x3816	; 0x803816 <state>
     eb8:	85 50       	subi	r24, 0x05	; 5
     eba:	84 30       	cpi	r24, 0x04	; 4
     ebc:	10 f5       	brcc	.+68     	; 0xf02 <i2c_set_message+0xfc>
			 case stateRGB0:
			 case stateRGB1:
			 case stateRGB2:
			 case stateRGB3:
			 orderBuffer[s_orderBuffer].msg[n_rxBuffer]=msg;
     ebe:	80 91 02 38 	lds	r24, 0x3802	; 0x803802 <s_orderBuffer>
     ec2:	90 e0       	ldi	r25, 0x00	; 0
     ec4:	20 91 15 38 	lds	r18, 0x3815	; 0x803815 <n_rxBuffer>
     ec8:	dc 01       	movw	r26, r24
     eca:	aa 0f       	add	r26, r26
     ecc:	bb 1f       	adc	r27, r27
     ece:	aa 0f       	add	r26, r26
     ed0:	bb 1f       	adc	r27, r27
     ed2:	ae 54       	subi	r26, 0x4E	; 78
     ed4:	b7 4c       	sbci	r27, 0xC7	; 199
     ed6:	a2 0f       	add	r26, r18
     ed8:	b1 1d       	adc	r27, r1
     eda:	11 96       	adiw	r26, 0x01	; 1
     edc:	ec 93       	st	X, r30
			 n_rxBuffer++;
     ede:	2f 5f       	subi	r18, 0xFF	; 255
     ee0:	20 93 15 38 	sts	0x3815, r18	; 0x803815 <n_rxBuffer>
			 //the order is ready
			 if(n_rxBuffer>=3){
     ee4:	23 30       	cpi	r18, 0x03	; 3
     ee6:	88 f0       	brcs	.+34     	; 0xf0a <i2c_set_message+0x104>
				 BITMASK_SET(orderBuffer[s_orderBuffer].order,I2C_ORDER_READY_bm);
     ee8:	88 0f       	add	r24, r24
     eea:	99 1f       	adc	r25, r25
     eec:	88 0f       	add	r24, r24
     eee:	99 1f       	adc	r25, r25
     ef0:	fc 01       	movw	r30, r24
     ef2:	ee 54       	subi	r30, 0x4E	; 78
     ef4:	f7 4c       	sbci	r31, 0xC7	; 199
     ef6:	80 81       	ld	r24, Z
     ef8:	80 68       	ori	r24, 0x80	; 128
     efa:	80 83       	st	Z, r24
				 state=stateIdle;
     efc:	10 92 16 38 	sts	0x3816, r1	; 0x803816 <state>
     f00:	08 95       	ret
			 }
			 break;
			 default:
			 n_rxBuffer=0;
     f02:	10 92 15 38 	sts	0x3815, r1	; 0x803815 <n_rxBuffer>
			 state=stateIdle;
     f06:	10 92 16 38 	sts	0x3816, r1	; 0x803816 <state>
     f0a:	08 95       	ret

00000f0c <i2c_get_response>:
		 }
	 }
 }
 i2cResponseStrct i2c_get_response(){
	 i2cResponseStrct responseState;
	 switch (state)
     f0c:	80 91 16 38 	lds	r24, 0x3816	; 0x803816 <state>
     f10:	82 30       	cpi	r24, 0x02	; 2
     f12:	29 f1       	breq	.+74     	; 0xf5e <i2c_get_response+0x52>
     f14:	18 f4       	brcc	.+6      	; 0xf1c <i2c_get_response+0x10>
     f16:	81 30       	cpi	r24, 0x01	; 1
     f18:	31 f0       	breq	.+12     	; 0xf26 <i2c_get_response+0x1a>
     f1a:	35 c0       	rjmp	.+106    	; 0xf86 <i2c_get_response+0x7a>
     f1c:	83 30       	cpi	r24, 0x03	; 3
     f1e:	69 f1       	breq	.+90     	; 0xf7a <i2c_get_response+0x6e>
     f20:	84 30       	cpi	r24, 0x04	; 4
     f22:	79 f0       	breq	.+30     	; 0xf42 <i2c_get_response+0x36>
     f24:	30 c0       	rjmp	.+96     	; 0xf86 <i2c_get_response+0x7a>
	 {
		 case stateADC0:
		 responseState.response=sendADC0;
     f26:	80 e0       	ldi	r24, 0x00	; 0
		 responseState.index=i_txBuffer++;
     f28:	90 91 14 38 	lds	r25, 0x3814	; 0x803814 <i_txBuffer>
     f2c:	21 e0       	ldi	r18, 0x01	; 1
     f2e:	29 0f       	add	r18, r25
     f30:	20 93 14 38 	sts	0x3814, r18	; 0x803814 <i_txBuffer>
		 if(i_txBuffer>=2){
     f34:	22 30       	cpi	r18, 0x02	; 2
     f36:	60 f1       	brcs	.+88     	; 0xf90 <i2c_get_response+0x84>
			 i_txBuffer=0;
     f38:	10 92 14 38 	sts	0x3814, r1	; 0x803814 <i_txBuffer>
			 state=stateIdle;
     f3c:	10 92 16 38 	sts	0x3816, r1	; 0x803816 <state>
     f40:	08 95       	ret
		 }
		 break;
		 case stateADC1:
		 responseState.response=sendADC1;
     f42:	81 e0       	ldi	r24, 0x01	; 1
		 responseState.index=i_txBuffer++;
     f44:	90 91 14 38 	lds	r25, 0x3814	; 0x803814 <i_txBuffer>
     f48:	21 e0       	ldi	r18, 0x01	; 1
     f4a:	29 0f       	add	r18, r25
     f4c:	20 93 14 38 	sts	0x3814, r18	; 0x803814 <i_txBuffer>
		 if(i_txBuffer>=2){
     f50:	22 30       	cpi	r18, 0x02	; 2
     f52:	f0 f0       	brcs	.+60     	; 0xf90 <i2c_get_response+0x84>
			 i_txBuffer=0;
     f54:	10 92 14 38 	sts	0x3814, r1	; 0x803814 <i_txBuffer>
			 state=stateIdle;
     f58:	10 92 16 38 	sts	0x3816, r1	; 0x803816 <state>
     f5c:	08 95       	ret
		 }
		 break;
		 case stateEnc:
		 responseState.response=sendENC;
     f5e:	82 e0       	ldi	r24, 0x02	; 2
		 responseState.index=i_txBuffer++;
     f60:	90 91 14 38 	lds	r25, 0x3814	; 0x803814 <i_txBuffer>
     f64:	21 e0       	ldi	r18, 0x01	; 1
     f66:	29 0f       	add	r18, r25
     f68:	20 93 14 38 	sts	0x3814, r18	; 0x803814 <i_txBuffer>
		 if(i_txBuffer>=2){
     f6c:	22 30       	cpi	r18, 0x02	; 2
     f6e:	80 f0       	brcs	.+32     	; 0xf90 <i2c_get_response+0x84>
			 i_txBuffer=0;
     f70:	10 92 14 38 	sts	0x3814, r1	; 0x803814 <i_txBuffer>
			 state=stateIdle;
     f74:	10 92 16 38 	sts	0x3816, r1	; 0x803816 <state>
     f78:	08 95       	ret
		 }
		 break;
		 case stateBut:
		 responseState.response=sendBUT;
     f7a:	83 e0       	ldi	r24, 0x03	; 3
		 i_txBuffer=0;
     f7c:	10 92 14 38 	sts	0x3814, r1	; 0x803814 <i_txBuffer>
		 state=stateIdle;
     f80:	10 92 16 38 	sts	0x3816, r1	; 0x803816 <state>
		 break;
     f84:	08 95       	ret
		 //a byte was requested but we don't know which
		 default:
		 i_txBuffer=0;
     f86:	10 92 14 38 	sts	0x3814, r1	; 0x803814 <i_txBuffer>
		 responseState.response=i2cError;
     f8a:	84 e0       	ldi	r24, 0x04	; 4
		 state=stateIdle;
     f8c:	10 92 16 38 	sts	0x3816, r1	; 0x803816 <state>
		 break;
	 }
	 return responseState;
 }
     f90:	08 95       	ret

00000f92 <i2c_get_order>:
 
 i2cOrderStrct	i2c_get_order(){
	 i2cOrderStrct retVal;
	 retVal.order=-1;
	 for (int i=0;i<5;i++)
     f92:	80 e0       	ldi	r24, 0x00	; 0
     f94:	90 e0       	ldi	r25, 0x00	; 0
     f96:	1b c0       	rjmp	.+54     	; 0xfce <i2c_get_order+0x3c>
	 {
		 //do we have an order ready
		 cli();
     f98:	f8 94       	cli
		 if (BITMASK_CHECK_ALL(orderBuffer[i].order,I2C_ORDER_READY_bm))
     f9a:	fc 01       	movw	r30, r24
     f9c:	ee 0f       	add	r30, r30
     f9e:	ff 1f       	adc	r31, r31
     fa0:	ee 0f       	add	r30, r30
     fa2:	ff 1f       	adc	r31, r31
     fa4:	ee 54       	subi	r30, 0x4E	; 78
     fa6:	f7 4c       	sbci	r31, 0xC7	; 199
     fa8:	60 81       	ld	r22, Z
     faa:	66 23       	and	r22, r22
     fac:	74 f4       	brge	.+28     	; 0xfca <i2c_get_order+0x38>
		 {
			 BITMASK_CLEAR(orderBuffer[i].order,I2C_ORDER_READY_bm);
     fae:	88 0f       	add	r24, r24
     fb0:	99 1f       	adc	r25, r25
     fb2:	88 0f       	add	r24, r24
     fb4:	99 1f       	adc	r25, r25
     fb6:	fc 01       	movw	r30, r24
     fb8:	ee 54       	subi	r30, 0x4E	; 78
     fba:	f7 4c       	sbci	r31, 0xC7	; 199
     fbc:	6f 77       	andi	r22, 0x7F	; 127
     fbe:	60 83       	st	Z, r22
			 retVal=orderBuffer[i];
     fc0:	71 81       	ldd	r23, Z+1	; 0x01
     fc2:	82 81       	ldd	r24, Z+2	; 0x02
     fc4:	93 81       	ldd	r25, Z+3	; 0x03
			 sei();
     fc6:	78 94       	sei
			 return retVal;
     fc8:	08 95       	ret
		 }
		 sei();
     fca:	78 94       	sei
 }
 
 i2cOrderStrct	i2c_get_order(){
	 i2cOrderStrct retVal;
	 retVal.order=-1;
	 for (int i=0;i<5;i++)
     fcc:	01 96       	adiw	r24, 0x01	; 1
     fce:	85 30       	cpi	r24, 0x05	; 5
     fd0:	91 05       	cpc	r25, r1
     fd2:	14 f3       	brlt	.-60     	; 0xf98 <i2c_get_order+0x6>
			 sei();
			 return retVal;
		 }
		 sei();
	 }
	 return retVal;
     fd4:	6f ef       	ldi	r22, 0xFF	; 255
     fd6:	70 e0       	ldi	r23, 0x00	; 0
     fd8:	80 e0       	ldi	r24, 0x00	; 0
     fda:	90 e0       	ldi	r25, 0x00	; 0
	 
     fdc:	08 95       	ret

00000fde <timer0_init>:
 *  Author: tirii
 */ 
#include "timer.h"

void timer0_init(){
	TCA0.SINGLE.PER=1;//255;//&0xFF;
     fde:	e0 e0       	ldi	r30, 0x00	; 0
     fe0:	fa e0       	ldi	r31, 0x0A	; 10
     fe2:	81 e0       	ldi	r24, 0x01	; 1
     fe4:	90 e0       	ldi	r25, 0x00	; 0
     fe6:	86 a3       	std	Z+38, r24	; 0x26
     fe8:	97 a3       	std	Z+39, r25	; 0x27
	//TCA0.SINGLE.PERH=(255>>8)&0xFF;
	TCA0.SINGLE.INTCTRL|=TCA_SINGLE_OVF_bm; //enable counter intterrupt on overflow
     fea:	82 85       	ldd	r24, Z+10	; 0x0a
     fec:	81 60       	ori	r24, 0x01	; 1
     fee:	82 87       	std	Z+10, r24	; 0x0a
	TCA0.SINGLE.CTRLA|=TCA_SINGLE_CLKSEL_DIV256_gc|TCA_SINGLE_ENABLE_bm;
     ff0:	80 81       	ld	r24, Z
     ff2:	8d 60       	ori	r24, 0x0D	; 13
     ff4:	80 83       	st	Z, r24
     ff6:	08 95       	ret

00000ff8 <timer1_init>:
}
void timer1_init(){
	TCB0.CCMP=8;
     ff8:	e0 e8       	ldi	r30, 0x80	; 128
     ffa:	fa e0       	ldi	r31, 0x0A	; 10
     ffc:	88 e0       	ldi	r24, 0x08	; 8
     ffe:	90 e0       	ldi	r25, 0x00	; 0
    1000:	84 87       	std	Z+12, r24	; 0x0c
    1002:	95 87       	std	Z+13, r25	; 0x0d
	//TCA0.SINGLE.PERH=(255>>8)&0xFF;
	TCB0.INTCTRL|=TCB_CAPT_bm; //enable counter intterrupt on overflow
    1004:	85 81       	ldd	r24, Z+5	; 0x05
    1006:	81 60       	ori	r24, 0x01	; 1
    1008:	85 83       	std	Z+5, r24	; 0x05
	TCB0.CTRLA|=TCB_CLKSEL_TCA0_gc|TCA_SINGLE_ENABLE_bm;
    100a:	80 81       	ld	r24, Z
    100c:	85 60       	ori	r24, 0x05	; 5
    100e:	80 83       	st	Z, r24
    1010:	08 95       	ret

00001012 <__subsf3>:
    1012:	50 58       	subi	r21, 0x80	; 128

00001014 <__addsf3>:
    1014:	bb 27       	eor	r27, r27
    1016:	aa 27       	eor	r26, r26
    1018:	0e 94 21 08 	call	0x1042	; 0x1042 <__addsf3x>
    101c:	0c 94 22 09 	jmp	0x1244	; 0x1244 <__fp_round>
    1020:	0e 94 14 09 	call	0x1228	; 0x1228 <__fp_pscA>
    1024:	38 f0       	brcs	.+14     	; 0x1034 <__addsf3+0x20>
    1026:	0e 94 1b 09 	call	0x1236	; 0x1236 <__fp_pscB>
    102a:	20 f0       	brcs	.+8      	; 0x1034 <__addsf3+0x20>
    102c:	39 f4       	brne	.+14     	; 0x103c <__addsf3+0x28>
    102e:	9f 3f       	cpi	r25, 0xFF	; 255
    1030:	19 f4       	brne	.+6      	; 0x1038 <__addsf3+0x24>
    1032:	26 f4       	brtc	.+8      	; 0x103c <__addsf3+0x28>
    1034:	0c 94 11 09 	jmp	0x1222	; 0x1222 <__fp_nan>
    1038:	0e f4       	brtc	.+2      	; 0x103c <__addsf3+0x28>
    103a:	e0 95       	com	r30
    103c:	e7 fb       	bst	r30, 7
    103e:	0c 94 0b 09 	jmp	0x1216	; 0x1216 <__fp_inf>

00001042 <__addsf3x>:
    1042:	e9 2f       	mov	r30, r25
    1044:	0e 94 33 09 	call	0x1266	; 0x1266 <__fp_split3>
    1048:	58 f3       	brcs	.-42     	; 0x1020 <__addsf3+0xc>
    104a:	ba 17       	cp	r27, r26
    104c:	62 07       	cpc	r22, r18
    104e:	73 07       	cpc	r23, r19
    1050:	84 07       	cpc	r24, r20
    1052:	95 07       	cpc	r25, r21
    1054:	20 f0       	brcs	.+8      	; 0x105e <__addsf3x+0x1c>
    1056:	79 f4       	brne	.+30     	; 0x1076 <__addsf3x+0x34>
    1058:	a6 f5       	brtc	.+104    	; 0x10c2 <__addsf3x+0x80>
    105a:	0c 94 55 09 	jmp	0x12aa	; 0x12aa <__fp_zero>
    105e:	0e f4       	brtc	.+2      	; 0x1062 <__addsf3x+0x20>
    1060:	e0 95       	com	r30
    1062:	0b 2e       	mov	r0, r27
    1064:	ba 2f       	mov	r27, r26
    1066:	a0 2d       	mov	r26, r0
    1068:	0b 01       	movw	r0, r22
    106a:	b9 01       	movw	r22, r18
    106c:	90 01       	movw	r18, r0
    106e:	0c 01       	movw	r0, r24
    1070:	ca 01       	movw	r24, r20
    1072:	a0 01       	movw	r20, r0
    1074:	11 24       	eor	r1, r1
    1076:	ff 27       	eor	r31, r31
    1078:	59 1b       	sub	r21, r25
    107a:	99 f0       	breq	.+38     	; 0x10a2 <__addsf3x+0x60>
    107c:	59 3f       	cpi	r21, 0xF9	; 249
    107e:	50 f4       	brcc	.+20     	; 0x1094 <__addsf3x+0x52>
    1080:	50 3e       	cpi	r21, 0xE0	; 224
    1082:	68 f1       	brcs	.+90     	; 0x10de <__addsf3x+0x9c>
    1084:	1a 16       	cp	r1, r26
    1086:	f0 40       	sbci	r31, 0x00	; 0
    1088:	a2 2f       	mov	r26, r18
    108a:	23 2f       	mov	r18, r19
    108c:	34 2f       	mov	r19, r20
    108e:	44 27       	eor	r20, r20
    1090:	58 5f       	subi	r21, 0xF8	; 248
    1092:	f3 cf       	rjmp	.-26     	; 0x107a <__addsf3x+0x38>
    1094:	46 95       	lsr	r20
    1096:	37 95       	ror	r19
    1098:	27 95       	ror	r18
    109a:	a7 95       	ror	r26
    109c:	f0 40       	sbci	r31, 0x00	; 0
    109e:	53 95       	inc	r21
    10a0:	c9 f7       	brne	.-14     	; 0x1094 <__addsf3x+0x52>
    10a2:	7e f4       	brtc	.+30     	; 0x10c2 <__addsf3x+0x80>
    10a4:	1f 16       	cp	r1, r31
    10a6:	ba 0b       	sbc	r27, r26
    10a8:	62 0b       	sbc	r22, r18
    10aa:	73 0b       	sbc	r23, r19
    10ac:	84 0b       	sbc	r24, r20
    10ae:	ba f0       	brmi	.+46     	; 0x10de <__addsf3x+0x9c>
    10b0:	91 50       	subi	r25, 0x01	; 1
    10b2:	a1 f0       	breq	.+40     	; 0x10dc <__addsf3x+0x9a>
    10b4:	ff 0f       	add	r31, r31
    10b6:	bb 1f       	adc	r27, r27
    10b8:	66 1f       	adc	r22, r22
    10ba:	77 1f       	adc	r23, r23
    10bc:	88 1f       	adc	r24, r24
    10be:	c2 f7       	brpl	.-16     	; 0x10b0 <__addsf3x+0x6e>
    10c0:	0e c0       	rjmp	.+28     	; 0x10de <__addsf3x+0x9c>
    10c2:	ba 0f       	add	r27, r26
    10c4:	62 1f       	adc	r22, r18
    10c6:	73 1f       	adc	r23, r19
    10c8:	84 1f       	adc	r24, r20
    10ca:	48 f4       	brcc	.+18     	; 0x10de <__addsf3x+0x9c>
    10cc:	87 95       	ror	r24
    10ce:	77 95       	ror	r23
    10d0:	67 95       	ror	r22
    10d2:	b7 95       	ror	r27
    10d4:	f7 95       	ror	r31
    10d6:	9e 3f       	cpi	r25, 0xFE	; 254
    10d8:	08 f0       	brcs	.+2      	; 0x10dc <__addsf3x+0x9a>
    10da:	b0 cf       	rjmp	.-160    	; 0x103c <__addsf3+0x28>
    10dc:	93 95       	inc	r25
    10de:	88 0f       	add	r24, r24
    10e0:	08 f0       	brcs	.+2      	; 0x10e4 <__addsf3x+0xa2>
    10e2:	99 27       	eor	r25, r25
    10e4:	ee 0f       	add	r30, r30
    10e6:	97 95       	ror	r25
    10e8:	87 95       	ror	r24
    10ea:	08 95       	ret

000010ec <__cmpsf2>:
    10ec:	0e 94 e7 08 	call	0x11ce	; 0x11ce <__fp_cmp>
    10f0:	08 f4       	brcc	.+2      	; 0x10f4 <__cmpsf2+0x8>
    10f2:	81 e0       	ldi	r24, 0x01	; 1
    10f4:	08 95       	ret

000010f6 <__fixunssfsi>:
    10f6:	0e 94 3b 09 	call	0x1276	; 0x1276 <__fp_splitA>
    10fa:	88 f0       	brcs	.+34     	; 0x111e <__fixunssfsi+0x28>
    10fc:	9f 57       	subi	r25, 0x7F	; 127
    10fe:	98 f0       	brcs	.+38     	; 0x1126 <__fixunssfsi+0x30>
    1100:	b9 2f       	mov	r27, r25
    1102:	99 27       	eor	r25, r25
    1104:	b7 51       	subi	r27, 0x17	; 23
    1106:	b0 f0       	brcs	.+44     	; 0x1134 <__fixunssfsi+0x3e>
    1108:	e1 f0       	breq	.+56     	; 0x1142 <__fixunssfsi+0x4c>
    110a:	66 0f       	add	r22, r22
    110c:	77 1f       	adc	r23, r23
    110e:	88 1f       	adc	r24, r24
    1110:	99 1f       	adc	r25, r25
    1112:	1a f0       	brmi	.+6      	; 0x111a <__fixunssfsi+0x24>
    1114:	ba 95       	dec	r27
    1116:	c9 f7       	brne	.-14     	; 0x110a <__fixunssfsi+0x14>
    1118:	14 c0       	rjmp	.+40     	; 0x1142 <__fixunssfsi+0x4c>
    111a:	b1 30       	cpi	r27, 0x01	; 1
    111c:	91 f0       	breq	.+36     	; 0x1142 <__fixunssfsi+0x4c>
    111e:	0e 94 55 09 	call	0x12aa	; 0x12aa <__fp_zero>
    1122:	b1 e0       	ldi	r27, 0x01	; 1
    1124:	08 95       	ret
    1126:	0c 94 55 09 	jmp	0x12aa	; 0x12aa <__fp_zero>
    112a:	67 2f       	mov	r22, r23
    112c:	78 2f       	mov	r23, r24
    112e:	88 27       	eor	r24, r24
    1130:	b8 5f       	subi	r27, 0xF8	; 248
    1132:	39 f0       	breq	.+14     	; 0x1142 <__fixunssfsi+0x4c>
    1134:	b9 3f       	cpi	r27, 0xF9	; 249
    1136:	cc f3       	brlt	.-14     	; 0x112a <__fixunssfsi+0x34>
    1138:	86 95       	lsr	r24
    113a:	77 95       	ror	r23
    113c:	67 95       	ror	r22
    113e:	b3 95       	inc	r27
    1140:	d9 f7       	brne	.-10     	; 0x1138 <__fixunssfsi+0x42>
    1142:	3e f4       	brtc	.+14     	; 0x1152 <__fixunssfsi+0x5c>
    1144:	90 95       	com	r25
    1146:	80 95       	com	r24
    1148:	70 95       	com	r23
    114a:	61 95       	neg	r22
    114c:	7f 4f       	sbci	r23, 0xFF	; 255
    114e:	8f 4f       	sbci	r24, 0xFF	; 255
    1150:	9f 4f       	sbci	r25, 0xFF	; 255
    1152:	08 95       	ret

00001154 <__floatunsisf>:
    1154:	e8 94       	clt
    1156:	09 c0       	rjmp	.+18     	; 0x116a <__floatsisf+0x12>

00001158 <__floatsisf>:
    1158:	97 fb       	bst	r25, 7
    115a:	3e f4       	brtc	.+14     	; 0x116a <__floatsisf+0x12>
    115c:	90 95       	com	r25
    115e:	80 95       	com	r24
    1160:	70 95       	com	r23
    1162:	61 95       	neg	r22
    1164:	7f 4f       	sbci	r23, 0xFF	; 255
    1166:	8f 4f       	sbci	r24, 0xFF	; 255
    1168:	9f 4f       	sbci	r25, 0xFF	; 255
    116a:	99 23       	and	r25, r25
    116c:	a9 f0       	breq	.+42     	; 0x1198 <__floatsisf+0x40>
    116e:	f9 2f       	mov	r31, r25
    1170:	96 e9       	ldi	r25, 0x96	; 150
    1172:	bb 27       	eor	r27, r27
    1174:	93 95       	inc	r25
    1176:	f6 95       	lsr	r31
    1178:	87 95       	ror	r24
    117a:	77 95       	ror	r23
    117c:	67 95       	ror	r22
    117e:	b7 95       	ror	r27
    1180:	f1 11       	cpse	r31, r1
    1182:	f8 cf       	rjmp	.-16     	; 0x1174 <__floatsisf+0x1c>
    1184:	fa f4       	brpl	.+62     	; 0x11c4 <__floatsisf+0x6c>
    1186:	bb 0f       	add	r27, r27
    1188:	11 f4       	brne	.+4      	; 0x118e <__floatsisf+0x36>
    118a:	60 ff       	sbrs	r22, 0
    118c:	1b c0       	rjmp	.+54     	; 0x11c4 <__floatsisf+0x6c>
    118e:	6f 5f       	subi	r22, 0xFF	; 255
    1190:	7f 4f       	sbci	r23, 0xFF	; 255
    1192:	8f 4f       	sbci	r24, 0xFF	; 255
    1194:	9f 4f       	sbci	r25, 0xFF	; 255
    1196:	16 c0       	rjmp	.+44     	; 0x11c4 <__floatsisf+0x6c>
    1198:	88 23       	and	r24, r24
    119a:	11 f0       	breq	.+4      	; 0x11a0 <__floatsisf+0x48>
    119c:	96 e9       	ldi	r25, 0x96	; 150
    119e:	11 c0       	rjmp	.+34     	; 0x11c2 <__floatsisf+0x6a>
    11a0:	77 23       	and	r23, r23
    11a2:	21 f0       	breq	.+8      	; 0x11ac <__floatsisf+0x54>
    11a4:	9e e8       	ldi	r25, 0x8E	; 142
    11a6:	87 2f       	mov	r24, r23
    11a8:	76 2f       	mov	r23, r22
    11aa:	05 c0       	rjmp	.+10     	; 0x11b6 <__floatsisf+0x5e>
    11ac:	66 23       	and	r22, r22
    11ae:	71 f0       	breq	.+28     	; 0x11cc <__floatsisf+0x74>
    11b0:	96 e8       	ldi	r25, 0x86	; 134
    11b2:	86 2f       	mov	r24, r22
    11b4:	70 e0       	ldi	r23, 0x00	; 0
    11b6:	60 e0       	ldi	r22, 0x00	; 0
    11b8:	2a f0       	brmi	.+10     	; 0x11c4 <__floatsisf+0x6c>
    11ba:	9a 95       	dec	r25
    11bc:	66 0f       	add	r22, r22
    11be:	77 1f       	adc	r23, r23
    11c0:	88 1f       	adc	r24, r24
    11c2:	da f7       	brpl	.-10     	; 0x11ba <__floatsisf+0x62>
    11c4:	88 0f       	add	r24, r24
    11c6:	96 95       	lsr	r25
    11c8:	87 95       	ror	r24
    11ca:	97 f9       	bld	r25, 7
    11cc:	08 95       	ret

000011ce <__fp_cmp>:
    11ce:	99 0f       	add	r25, r25
    11d0:	00 08       	sbc	r0, r0
    11d2:	55 0f       	add	r21, r21
    11d4:	aa 0b       	sbc	r26, r26
    11d6:	e0 e8       	ldi	r30, 0x80	; 128
    11d8:	fe ef       	ldi	r31, 0xFE	; 254
    11da:	16 16       	cp	r1, r22
    11dc:	17 06       	cpc	r1, r23
    11de:	e8 07       	cpc	r30, r24
    11e0:	f9 07       	cpc	r31, r25
    11e2:	c0 f0       	brcs	.+48     	; 0x1214 <__fp_cmp+0x46>
    11e4:	12 16       	cp	r1, r18
    11e6:	13 06       	cpc	r1, r19
    11e8:	e4 07       	cpc	r30, r20
    11ea:	f5 07       	cpc	r31, r21
    11ec:	98 f0       	brcs	.+38     	; 0x1214 <__fp_cmp+0x46>
    11ee:	62 1b       	sub	r22, r18
    11f0:	73 0b       	sbc	r23, r19
    11f2:	84 0b       	sbc	r24, r20
    11f4:	95 0b       	sbc	r25, r21
    11f6:	39 f4       	brne	.+14     	; 0x1206 <__fp_cmp+0x38>
    11f8:	0a 26       	eor	r0, r26
    11fa:	61 f0       	breq	.+24     	; 0x1214 <__fp_cmp+0x46>
    11fc:	23 2b       	or	r18, r19
    11fe:	24 2b       	or	r18, r20
    1200:	25 2b       	or	r18, r21
    1202:	21 f4       	brne	.+8      	; 0x120c <__fp_cmp+0x3e>
    1204:	08 95       	ret
    1206:	0a 26       	eor	r0, r26
    1208:	09 f4       	brne	.+2      	; 0x120c <__fp_cmp+0x3e>
    120a:	a1 40       	sbci	r26, 0x01	; 1
    120c:	a6 95       	lsr	r26
    120e:	8f ef       	ldi	r24, 0xFF	; 255
    1210:	81 1d       	adc	r24, r1
    1212:	81 1d       	adc	r24, r1
    1214:	08 95       	ret

00001216 <__fp_inf>:
    1216:	97 f9       	bld	r25, 7
    1218:	9f 67       	ori	r25, 0x7F	; 127
    121a:	80 e8       	ldi	r24, 0x80	; 128
    121c:	70 e0       	ldi	r23, 0x00	; 0
    121e:	60 e0       	ldi	r22, 0x00	; 0
    1220:	08 95       	ret

00001222 <__fp_nan>:
    1222:	9f ef       	ldi	r25, 0xFF	; 255
    1224:	80 ec       	ldi	r24, 0xC0	; 192
    1226:	08 95       	ret

00001228 <__fp_pscA>:
    1228:	00 24       	eor	r0, r0
    122a:	0a 94       	dec	r0
    122c:	16 16       	cp	r1, r22
    122e:	17 06       	cpc	r1, r23
    1230:	18 06       	cpc	r1, r24
    1232:	09 06       	cpc	r0, r25
    1234:	08 95       	ret

00001236 <__fp_pscB>:
    1236:	00 24       	eor	r0, r0
    1238:	0a 94       	dec	r0
    123a:	12 16       	cp	r1, r18
    123c:	13 06       	cpc	r1, r19
    123e:	14 06       	cpc	r1, r20
    1240:	05 06       	cpc	r0, r21
    1242:	08 95       	ret

00001244 <__fp_round>:
    1244:	09 2e       	mov	r0, r25
    1246:	03 94       	inc	r0
    1248:	00 0c       	add	r0, r0
    124a:	11 f4       	brne	.+4      	; 0x1250 <__fp_round+0xc>
    124c:	88 23       	and	r24, r24
    124e:	52 f0       	brmi	.+20     	; 0x1264 <__fp_round+0x20>
    1250:	bb 0f       	add	r27, r27
    1252:	40 f4       	brcc	.+16     	; 0x1264 <__fp_round+0x20>
    1254:	bf 2b       	or	r27, r31
    1256:	11 f4       	brne	.+4      	; 0x125c <__fp_round+0x18>
    1258:	60 ff       	sbrs	r22, 0
    125a:	04 c0       	rjmp	.+8      	; 0x1264 <__fp_round+0x20>
    125c:	6f 5f       	subi	r22, 0xFF	; 255
    125e:	7f 4f       	sbci	r23, 0xFF	; 255
    1260:	8f 4f       	sbci	r24, 0xFF	; 255
    1262:	9f 4f       	sbci	r25, 0xFF	; 255
    1264:	08 95       	ret

00001266 <__fp_split3>:
    1266:	57 fd       	sbrc	r21, 7
    1268:	90 58       	subi	r25, 0x80	; 128
    126a:	44 0f       	add	r20, r20
    126c:	55 1f       	adc	r21, r21
    126e:	59 f0       	breq	.+22     	; 0x1286 <__fp_splitA+0x10>
    1270:	5f 3f       	cpi	r21, 0xFF	; 255
    1272:	71 f0       	breq	.+28     	; 0x1290 <__fp_splitA+0x1a>
    1274:	47 95       	ror	r20

00001276 <__fp_splitA>:
    1276:	88 0f       	add	r24, r24
    1278:	97 fb       	bst	r25, 7
    127a:	99 1f       	adc	r25, r25
    127c:	61 f0       	breq	.+24     	; 0x1296 <__fp_splitA+0x20>
    127e:	9f 3f       	cpi	r25, 0xFF	; 255
    1280:	79 f0       	breq	.+30     	; 0x12a0 <__fp_splitA+0x2a>
    1282:	87 95       	ror	r24
    1284:	08 95       	ret
    1286:	12 16       	cp	r1, r18
    1288:	13 06       	cpc	r1, r19
    128a:	14 06       	cpc	r1, r20
    128c:	55 1f       	adc	r21, r21
    128e:	f2 cf       	rjmp	.-28     	; 0x1274 <__fp_split3+0xe>
    1290:	46 95       	lsr	r20
    1292:	f1 df       	rcall	.-30     	; 0x1276 <__fp_splitA>
    1294:	08 c0       	rjmp	.+16     	; 0x12a6 <__fp_splitA+0x30>
    1296:	16 16       	cp	r1, r22
    1298:	17 06       	cpc	r1, r23
    129a:	18 06       	cpc	r1, r24
    129c:	99 1f       	adc	r25, r25
    129e:	f1 cf       	rjmp	.-30     	; 0x1282 <__fp_splitA+0xc>
    12a0:	86 95       	lsr	r24
    12a2:	71 05       	cpc	r23, r1
    12a4:	61 05       	cpc	r22, r1
    12a6:	08 94       	sec
    12a8:	08 95       	ret

000012aa <__fp_zero>:
    12aa:	e8 94       	clt

000012ac <__fp_szero>:
    12ac:	bb 27       	eor	r27, r27
    12ae:	66 27       	eor	r22, r22
    12b0:	77 27       	eor	r23, r23
    12b2:	cb 01       	movw	r24, r22
    12b4:	97 f9       	bld	r25, 7
    12b6:	08 95       	ret

000012b8 <__mulsf3>:
    12b8:	0e 94 6f 09 	call	0x12de	; 0x12de <__mulsf3x>
    12bc:	0c 94 22 09 	jmp	0x1244	; 0x1244 <__fp_round>
    12c0:	0e 94 14 09 	call	0x1228	; 0x1228 <__fp_pscA>
    12c4:	38 f0       	brcs	.+14     	; 0x12d4 <__mulsf3+0x1c>
    12c6:	0e 94 1b 09 	call	0x1236	; 0x1236 <__fp_pscB>
    12ca:	20 f0       	brcs	.+8      	; 0x12d4 <__mulsf3+0x1c>
    12cc:	95 23       	and	r25, r21
    12ce:	11 f0       	breq	.+4      	; 0x12d4 <__mulsf3+0x1c>
    12d0:	0c 94 0b 09 	jmp	0x1216	; 0x1216 <__fp_inf>
    12d4:	0c 94 11 09 	jmp	0x1222	; 0x1222 <__fp_nan>
    12d8:	11 24       	eor	r1, r1
    12da:	0c 94 56 09 	jmp	0x12ac	; 0x12ac <__fp_szero>

000012de <__mulsf3x>:
    12de:	0e 94 33 09 	call	0x1266	; 0x1266 <__fp_split3>
    12e2:	70 f3       	brcs	.-36     	; 0x12c0 <__mulsf3+0x8>

000012e4 <__mulsf3_pse>:
    12e4:	95 9f       	mul	r25, r21
    12e6:	c1 f3       	breq	.-16     	; 0x12d8 <__mulsf3+0x20>
    12e8:	95 0f       	add	r25, r21
    12ea:	50 e0       	ldi	r21, 0x00	; 0
    12ec:	55 1f       	adc	r21, r21
    12ee:	62 9f       	mul	r22, r18
    12f0:	f0 01       	movw	r30, r0
    12f2:	72 9f       	mul	r23, r18
    12f4:	bb 27       	eor	r27, r27
    12f6:	f0 0d       	add	r31, r0
    12f8:	b1 1d       	adc	r27, r1
    12fa:	63 9f       	mul	r22, r19
    12fc:	aa 27       	eor	r26, r26
    12fe:	f0 0d       	add	r31, r0
    1300:	b1 1d       	adc	r27, r1
    1302:	aa 1f       	adc	r26, r26
    1304:	64 9f       	mul	r22, r20
    1306:	66 27       	eor	r22, r22
    1308:	b0 0d       	add	r27, r0
    130a:	a1 1d       	adc	r26, r1
    130c:	66 1f       	adc	r22, r22
    130e:	82 9f       	mul	r24, r18
    1310:	22 27       	eor	r18, r18
    1312:	b0 0d       	add	r27, r0
    1314:	a1 1d       	adc	r26, r1
    1316:	62 1f       	adc	r22, r18
    1318:	73 9f       	mul	r23, r19
    131a:	b0 0d       	add	r27, r0
    131c:	a1 1d       	adc	r26, r1
    131e:	62 1f       	adc	r22, r18
    1320:	83 9f       	mul	r24, r19
    1322:	a0 0d       	add	r26, r0
    1324:	61 1d       	adc	r22, r1
    1326:	22 1f       	adc	r18, r18
    1328:	74 9f       	mul	r23, r20
    132a:	33 27       	eor	r19, r19
    132c:	a0 0d       	add	r26, r0
    132e:	61 1d       	adc	r22, r1
    1330:	23 1f       	adc	r18, r19
    1332:	84 9f       	mul	r24, r20
    1334:	60 0d       	add	r22, r0
    1336:	21 1d       	adc	r18, r1
    1338:	82 2f       	mov	r24, r18
    133a:	76 2f       	mov	r23, r22
    133c:	6a 2f       	mov	r22, r26
    133e:	11 24       	eor	r1, r1
    1340:	9f 57       	subi	r25, 0x7F	; 127
    1342:	50 40       	sbci	r21, 0x00	; 0
    1344:	9a f0       	brmi	.+38     	; 0x136c <__mulsf3_pse+0x88>
    1346:	f1 f0       	breq	.+60     	; 0x1384 <__mulsf3_pse+0xa0>
    1348:	88 23       	and	r24, r24
    134a:	4a f0       	brmi	.+18     	; 0x135e <__mulsf3_pse+0x7a>
    134c:	ee 0f       	add	r30, r30
    134e:	ff 1f       	adc	r31, r31
    1350:	bb 1f       	adc	r27, r27
    1352:	66 1f       	adc	r22, r22
    1354:	77 1f       	adc	r23, r23
    1356:	88 1f       	adc	r24, r24
    1358:	91 50       	subi	r25, 0x01	; 1
    135a:	50 40       	sbci	r21, 0x00	; 0
    135c:	a9 f7       	brne	.-22     	; 0x1348 <__mulsf3_pse+0x64>
    135e:	9e 3f       	cpi	r25, 0xFE	; 254
    1360:	51 05       	cpc	r21, r1
    1362:	80 f0       	brcs	.+32     	; 0x1384 <__mulsf3_pse+0xa0>
    1364:	0c 94 0b 09 	jmp	0x1216	; 0x1216 <__fp_inf>
    1368:	0c 94 56 09 	jmp	0x12ac	; 0x12ac <__fp_szero>
    136c:	5f 3f       	cpi	r21, 0xFF	; 255
    136e:	e4 f3       	brlt	.-8      	; 0x1368 <__mulsf3_pse+0x84>
    1370:	98 3e       	cpi	r25, 0xE8	; 232
    1372:	d4 f3       	brlt	.-12     	; 0x1368 <__mulsf3_pse+0x84>
    1374:	86 95       	lsr	r24
    1376:	77 95       	ror	r23
    1378:	67 95       	ror	r22
    137a:	b7 95       	ror	r27
    137c:	f7 95       	ror	r31
    137e:	e7 95       	ror	r30
    1380:	9f 5f       	subi	r25, 0xFF	; 255
    1382:	c1 f7       	brne	.-16     	; 0x1374 <__mulsf3_pse+0x90>
    1384:	fe 2b       	or	r31, r30
    1386:	88 0f       	add	r24, r24
    1388:	91 1d       	adc	r25, r1
    138a:	96 95       	lsr	r25
    138c:	87 95       	ror	r24
    138e:	97 f9       	bld	r25, 7
    1390:	08 95       	ret

00001392 <__udivmodqi4>:
    1392:	99 1b       	sub	r25, r25
    1394:	79 e0       	ldi	r23, 0x09	; 9
    1396:	04 c0       	rjmp	.+8      	; 0x13a0 <__udivmodqi4_ep>

00001398 <__udivmodqi4_loop>:
    1398:	99 1f       	adc	r25, r25
    139a:	96 17       	cp	r25, r22
    139c:	08 f0       	brcs	.+2      	; 0x13a0 <__udivmodqi4_ep>
    139e:	96 1b       	sub	r25, r22

000013a0 <__udivmodqi4_ep>:
    13a0:	88 1f       	adc	r24, r24
    13a2:	7a 95       	dec	r23
    13a4:	c9 f7       	brne	.-14     	; 0x1398 <__udivmodqi4_loop>
    13a6:	80 95       	com	r24
    13a8:	08 95       	ret

000013aa <__tablejump2__>:
    13aa:	ee 0f       	add	r30, r30
    13ac:	ff 1f       	adc	r31, r31
    13ae:	05 90       	lpm	r0, Z+
    13b0:	f4 91       	lpm	r31, Z
    13b2:	e0 2d       	mov	r30, r0
    13b4:	09 94       	ijmp

000013b6 <swapfunc>:
    13b6:	dc 01       	movw	r26, r24
    13b8:	fb 01       	movw	r30, r22
    13ba:	8c 91       	ld	r24, X
    13bc:	90 81       	ld	r25, Z
    13be:	9d 93       	st	X+, r25
    13c0:	81 93       	st	Z+, r24
    13c2:	41 50       	subi	r20, 0x01	; 1
    13c4:	51 09       	sbc	r21, r1
    13c6:	14 16       	cp	r1, r20
    13c8:	15 06       	cpc	r1, r21
    13ca:	bc f3       	brlt	.-18     	; 0x13ba <swapfunc+0x4>
    13cc:	08 95       	ret

000013ce <med3>:
    13ce:	a0 e0       	ldi	r26, 0x00	; 0
    13d0:	b0 e0       	ldi	r27, 0x00	; 0
    13d2:	ed ee       	ldi	r30, 0xED	; 237
    13d4:	f9 e0       	ldi	r31, 0x09	; 9
    13d6:	0c 94 ed 0b 	jmp	0x17da	; 0x17da <__prologue_saves__+0x14>
    13da:	7c 01       	movw	r14, r24
    13dc:	6b 01       	movw	r12, r22
    13de:	d4 2f       	mov	r29, r20
    13e0:	c5 2f       	mov	r28, r21
    13e2:	89 01       	movw	r16, r18
    13e4:	f9 01       	movw	r30, r18
    13e6:	09 95       	icall
    13e8:	6d 2f       	mov	r22, r29
    13ea:	7c 2f       	mov	r23, r28
    13ec:	97 ff       	sbrs	r25, 7
    13ee:	10 c0       	rjmp	.+32     	; 0x1410 <med3+0x42>
    13f0:	c6 01       	movw	r24, r12
    13f2:	f8 01       	movw	r30, r16
    13f4:	09 95       	icall
    13f6:	97 ff       	sbrs	r25, 7
    13f8:	02 c0       	rjmp	.+4      	; 0x13fe <med3+0x30>
    13fa:	c6 01       	movw	r24, r12
    13fc:	18 c0       	rjmp	.+48     	; 0x142e <med3+0x60>
    13fe:	6d 2f       	mov	r22, r29
    1400:	7c 2f       	mov	r23, r28
    1402:	c7 01       	movw	r24, r14
    1404:	f8 01       	movw	r30, r16
    1406:	09 95       	icall
    1408:	97 fd       	sbrc	r25, 7
    140a:	0f c0       	rjmp	.+30     	; 0x142a <med3+0x5c>
    140c:	c7 01       	movw	r24, r14
    140e:	0f c0       	rjmp	.+30     	; 0x142e <med3+0x60>
    1410:	c6 01       	movw	r24, r12
    1412:	f8 01       	movw	r30, r16
    1414:	09 95       	icall
    1416:	18 16       	cp	r1, r24
    1418:	19 06       	cpc	r1, r25
    141a:	7c f3       	brlt	.-34     	; 0x13fa <med3+0x2c>
    141c:	6d 2f       	mov	r22, r29
    141e:	7c 2f       	mov	r23, r28
    1420:	c7 01       	movw	r24, r14
    1422:	f8 01       	movw	r30, r16
    1424:	09 95       	icall
    1426:	97 fd       	sbrc	r25, 7
    1428:	f1 cf       	rjmp	.-30     	; 0x140c <med3+0x3e>
    142a:	8d 2f       	mov	r24, r29
    142c:	9c 2f       	mov	r25, r28
    142e:	cd b7       	in	r28, 0x3d	; 61
    1430:	de b7       	in	r29, 0x3e	; 62
    1432:	e8 e0       	ldi	r30, 0x08	; 8
    1434:	0c 94 06 0c 	jmp	0x180c	; 0x180c <__epilogue_restores__+0x14>

00001438 <qsort>:
    1438:	aa e0       	ldi	r26, 0x0A	; 10
    143a:	b0 e0       	ldi	r27, 0x00	; 0
    143c:	e2 e2       	ldi	r30, 0x22	; 34
    143e:	fa e0       	ldi	r31, 0x0A	; 10
    1440:	0c 94 e3 0b 	jmp	0x17c6	; 0x17c6 <__prologue_saves__>
    1444:	8c 01       	movw	r16, r24
    1446:	7b 01       	movw	r14, r22
    1448:	49 87       	std	Y+9, r20	; 0x09
    144a:	5a 87       	std	Y+10, r21	; 0x0a
    144c:	69 01       	movw	r12, r18
    144e:	29 85       	ldd	r18, Y+9	; 0x09
    1450:	3a 85       	ldd	r19, Y+10	; 0x0a
    1452:	20 0f       	add	r18, r16
    1454:	31 1f       	adc	r19, r17
    1456:	29 83       	std	Y+1, r18	; 0x01
    1458:	3a 83       	std	Y+2, r19	; 0x02
    145a:	37 e0       	ldi	r19, 0x07	; 7
    145c:	e3 16       	cp	r14, r19
    145e:	f1 04       	cpc	r15, r1
    1460:	70 f5       	brcc	.+92     	; 0x14be <qsort+0x86>
    1462:	69 80       	ldd	r6, Y+1	; 0x01
    1464:	7a 80       	ldd	r7, Y+2	; 0x02
    1466:	49 85       	ldd	r20, Y+9	; 0x09
    1468:	5a 85       	ldd	r21, Y+10	; 0x0a
    146a:	e4 9e       	mul	r14, r20
    146c:	50 01       	movw	r10, r0
    146e:	e5 9e       	mul	r14, r21
    1470:	b0 0c       	add	r11, r0
    1472:	f4 9e       	mul	r15, r20
    1474:	b0 0c       	add	r11, r0
    1476:	11 24       	eor	r1, r1
    1478:	a0 0e       	add	r10, r16
    147a:	b1 1e       	adc	r11, r17
    147c:	6a 14       	cp	r6, r10
    147e:	7b 04       	cpc	r7, r11
    1480:	08 f0       	brcs	.+2      	; 0x1484 <qsort+0x4c>
    1482:	7a c1       	rjmp	.+756    	; 0x1778 <qsort+0x340>
    1484:	73 01       	movw	r14, r6
    1486:	0e 15       	cp	r16, r14
    1488:	1f 05       	cpc	r17, r15
    148a:	28 f0       	brcs	.+10     	; 0x1496 <qsort+0x5e>
    148c:	89 85       	ldd	r24, Y+9	; 0x09
    148e:	9a 85       	ldd	r25, Y+10	; 0x0a
    1490:	68 0e       	add	r6, r24
    1492:	79 1e       	adc	r7, r25
    1494:	f3 cf       	rjmp	.-26     	; 0x147c <qsort+0x44>
    1496:	47 01       	movw	r8, r14
    1498:	e9 85       	ldd	r30, Y+9	; 0x09
    149a:	fa 85       	ldd	r31, Y+10	; 0x0a
    149c:	8e 1a       	sub	r8, r30
    149e:	9f 0a       	sbc	r9, r31
    14a0:	b7 01       	movw	r22, r14
    14a2:	c4 01       	movw	r24, r8
    14a4:	f6 01       	movw	r30, r12
    14a6:	09 95       	icall
    14a8:	18 16       	cp	r1, r24
    14aa:	19 06       	cpc	r1, r25
    14ac:	7c f7       	brge	.-34     	; 0x148c <qsort+0x54>
    14ae:	49 85       	ldd	r20, Y+9	; 0x09
    14b0:	5a 85       	ldd	r21, Y+10	; 0x0a
    14b2:	b4 01       	movw	r22, r8
    14b4:	c7 01       	movw	r24, r14
    14b6:	0e 94 db 09 	call	0x13b6	; 0x13b6 <swapfunc>
    14ba:	74 01       	movw	r14, r8
    14bc:	e4 cf       	rjmp	.-56     	; 0x1486 <qsort+0x4e>
    14be:	c7 01       	movw	r24, r14
    14c0:	96 95       	lsr	r25
    14c2:	87 95       	ror	r24
    14c4:	29 85       	ldd	r18, Y+9	; 0x09
    14c6:	3a 85       	ldd	r19, Y+10	; 0x0a
    14c8:	82 9f       	mul	r24, r18
    14ca:	50 01       	movw	r10, r0
    14cc:	83 9f       	mul	r24, r19
    14ce:	b0 0c       	add	r11, r0
    14d0:	92 9f       	mul	r25, r18
    14d2:	b0 0c       	add	r11, r0
    14d4:	11 24       	eor	r1, r1
    14d6:	a0 0e       	add	r10, r16
    14d8:	b1 1e       	adc	r11, r17
    14da:	a7 01       	movw	r20, r14
    14dc:	41 50       	subi	r20, 0x01	; 1
    14de:	51 09       	sbc	r21, r1
    14e0:	4b 83       	std	Y+3, r20	; 0x03
    14e2:	5c 83       	std	Y+4, r21	; 0x04
    14e4:	57 e0       	ldi	r21, 0x07	; 7
    14e6:	e5 16       	cp	r14, r21
    14e8:	f1 04       	cpc	r15, r1
    14ea:	09 f4       	brne	.+2      	; 0x14ee <qsort+0xb6>
    14ec:	4c c0       	rjmp	.+152    	; 0x1586 <qsort+0x14e>
    14ee:	8b 81       	ldd	r24, Y+3	; 0x03
    14f0:	9c 81       	ldd	r25, Y+4	; 0x04
    14f2:	82 9f       	mul	r24, r18
    14f4:	30 01       	movw	r6, r0
    14f6:	83 9f       	mul	r24, r19
    14f8:	70 0c       	add	r7, r0
    14fa:	92 9f       	mul	r25, r18
    14fc:	70 0c       	add	r7, r0
    14fe:	11 24       	eor	r1, r1
    1500:	60 0e       	add	r6, r16
    1502:	71 1e       	adc	r7, r17
    1504:	99 e2       	ldi	r25, 0x29	; 41
    1506:	e9 16       	cp	r14, r25
    1508:	f1 04       	cpc	r15, r1
    150a:	a8 f1       	brcs	.+106    	; 0x1576 <qsort+0x13e>
    150c:	c7 01       	movw	r24, r14
    150e:	43 e0       	ldi	r20, 0x03	; 3
    1510:	96 95       	lsr	r25
    1512:	87 95       	ror	r24
    1514:	4a 95       	dec	r20
    1516:	e1 f7       	brne	.-8      	; 0x1510 <qsort+0xd8>
    1518:	82 9f       	mul	r24, r18
    151a:	40 01       	movw	r8, r0
    151c:	83 9f       	mul	r24, r19
    151e:	90 0c       	add	r9, r0
    1520:	92 9f       	mul	r25, r18
    1522:	90 0c       	add	r9, r0
    1524:	11 24       	eor	r1, r1
    1526:	14 01       	movw	r2, r8
    1528:	22 0c       	add	r2, r2
    152a:	33 1c       	adc	r3, r3
    152c:	a8 01       	movw	r20, r16
    152e:	42 0d       	add	r20, r2
    1530:	53 1d       	adc	r21, r3
    1532:	b8 01       	movw	r22, r16
    1534:	68 0d       	add	r22, r8
    1536:	79 1d       	adc	r23, r9
    1538:	96 01       	movw	r18, r12
    153a:	c8 01       	movw	r24, r16
    153c:	0e 94 e7 09 	call	0x13ce	; 0x13ce <med3>
    1540:	2c 01       	movw	r4, r24
    1542:	a5 01       	movw	r20, r10
    1544:	48 0d       	add	r20, r8
    1546:	59 1d       	adc	r21, r9
    1548:	91 94       	neg	r9
    154a:	81 94       	neg	r8
    154c:	91 08       	sbc	r9, r1
    154e:	96 01       	movw	r18, r12
    1550:	b5 01       	movw	r22, r10
    1552:	c5 01       	movw	r24, r10
    1554:	88 0d       	add	r24, r8
    1556:	99 1d       	adc	r25, r9
    1558:	0e 94 e7 09 	call	0x13ce	; 0x13ce <med3>
    155c:	5c 01       	movw	r10, r24
    155e:	b3 01       	movw	r22, r6
    1560:	68 0d       	add	r22, r8
    1562:	79 1d       	adc	r23, r9
    1564:	96 01       	movw	r18, r12
    1566:	a3 01       	movw	r20, r6
    1568:	c3 01       	movw	r24, r6
    156a:	82 19       	sub	r24, r2
    156c:	93 09       	sbc	r25, r3
    156e:	0e 94 e7 09 	call	0x13ce	; 0x13ce <med3>
    1572:	3c 01       	movw	r6, r24
    1574:	01 c0       	rjmp	.+2      	; 0x1578 <qsort+0x140>
    1576:	28 01       	movw	r4, r16
    1578:	96 01       	movw	r18, r12
    157a:	a3 01       	movw	r20, r6
    157c:	b5 01       	movw	r22, r10
    157e:	c2 01       	movw	r24, r4
    1580:	0e 94 e7 09 	call	0x13ce	; 0x13ce <med3>
    1584:	5c 01       	movw	r10, r24
    1586:	49 85       	ldd	r20, Y+9	; 0x09
    1588:	5a 85       	ldd	r21, Y+10	; 0x0a
    158a:	b5 01       	movw	r22, r10
    158c:	c8 01       	movw	r24, r16
    158e:	0e 94 db 09 	call	0x13b6	; 0x13b6 <swapfunc>
    1592:	69 80       	ldd	r6, Y+1	; 0x01
    1594:	7a 80       	ldd	r7, Y+2	; 0x02
    1596:	2b 81       	ldd	r18, Y+3	; 0x03
    1598:	3c 81       	ldd	r19, Y+4	; 0x04
    159a:	49 85       	ldd	r20, Y+9	; 0x09
    159c:	5a 85       	ldd	r21, Y+10	; 0x0a
    159e:	24 9f       	mul	r18, r20
    15a0:	f0 01       	movw	r30, r0
    15a2:	25 9f       	mul	r18, r21
    15a4:	f0 0d       	add	r31, r0
    15a6:	34 9f       	mul	r19, r20
    15a8:	f0 0d       	add	r31, r0
    15aa:	11 24       	eor	r1, r1
    15ac:	ed 83       	std	Y+5, r30	; 0x05
    15ae:	fe 83       	std	Y+6, r31	; 0x06
    15b0:	5f 01       	movw	r10, r30
    15b2:	a0 0e       	add	r10, r16
    15b4:	b1 1e       	adc	r11, r17
    15b6:	46 0d       	add	r20, r6
    15b8:	57 1d       	adc	r21, r7
    15ba:	4b 83       	std	Y+3, r20	; 0x03
    15bc:	5c 83       	std	Y+4, r21	; 0x04
    15be:	25 01       	movw	r4, r10
    15c0:	13 01       	movw	r2, r6
    15c2:	19 82       	std	Y+1, r1	; 0x01
    15c4:	1a 82       	std	Y+2, r1	; 0x02
    15c6:	8b 80       	ldd	r8, Y+3	; 0x03
    15c8:	9c 80       	ldd	r9, Y+4	; 0x04
    15ca:	89 85       	ldd	r24, Y+9	; 0x09
    15cc:	9a 85       	ldd	r25, Y+10	; 0x0a
    15ce:	88 1a       	sub	r8, r24
    15d0:	99 0a       	sbc	r9, r25
    15d2:	a8 14       	cp	r10, r8
    15d4:	b9 04       	cpc	r11, r9
    15d6:	08 f4       	brcc	.+2      	; 0x15da <qsort+0x1a2>
    15d8:	50 c0       	rjmp	.+160    	; 0x167a <qsort+0x242>
    15da:	b8 01       	movw	r22, r16
    15dc:	c4 01       	movw	r24, r8
    15de:	f6 01       	movw	r30, r12
    15e0:	09 95       	icall
    15e2:	18 16       	cp	r1, r24
    15e4:	19 06       	cpc	r1, r25
    15e6:	c4 f1       	brlt	.+112    	; 0x1658 <qsort+0x220>
    15e8:	89 2b       	or	r24, r25
    15ea:	71 f4       	brne	.+28     	; 0x1608 <qsort+0x1d0>
    15ec:	49 85       	ldd	r20, Y+9	; 0x09
    15ee:	5a 85       	ldd	r21, Y+10	; 0x0a
    15f0:	b4 01       	movw	r22, r8
    15f2:	c1 01       	movw	r24, r2
    15f4:	0e 94 db 09 	call	0x13b6	; 0x13b6 <swapfunc>
    15f8:	89 85       	ldd	r24, Y+9	; 0x09
    15fa:	9a 85       	ldd	r25, Y+10	; 0x0a
    15fc:	28 0e       	add	r2, r24
    15fe:	39 1e       	adc	r3, r25
    1600:	e1 e0       	ldi	r30, 0x01	; 1
    1602:	f0 e0       	ldi	r31, 0x00	; 0
    1604:	e9 83       	std	Y+1, r30	; 0x01
    1606:	fa 83       	std	Y+2, r31	; 0x02
    1608:	2b 81       	ldd	r18, Y+3	; 0x03
    160a:	3c 81       	ldd	r19, Y+4	; 0x04
    160c:	49 85       	ldd	r20, Y+9	; 0x09
    160e:	5a 85       	ldd	r21, Y+10	; 0x0a
    1610:	24 0f       	add	r18, r20
    1612:	35 1f       	adc	r19, r21
    1614:	2b 83       	std	Y+3, r18	; 0x03
    1616:	3c 83       	std	Y+4, r19	; 0x04
    1618:	d6 cf       	rjmp	.-84     	; 0x15c6 <qsort+0x18e>
    161a:	b8 01       	movw	r22, r16
    161c:	c5 01       	movw	r24, r10
    161e:	f6 01       	movw	r30, r12
    1620:	09 95       	icall
    1622:	95 01       	movw	r18, r10
    1624:	49 85       	ldd	r20, Y+9	; 0x09
    1626:	5a 85       	ldd	r21, Y+10	; 0x0a
    1628:	24 1b       	sub	r18, r20
    162a:	35 0b       	sbc	r19, r21
    162c:	2f 83       	std	Y+7, r18	; 0x07
    162e:	38 87       	std	Y+8, r19	; 0x08
    1630:	97 fd       	sbrc	r25, 7
    1632:	16 c0       	rjmp	.+44     	; 0x1660 <qsort+0x228>
    1634:	89 2b       	or	r24, r25
    1636:	71 f4       	brne	.+28     	; 0x1654 <qsort+0x21c>
    1638:	49 85       	ldd	r20, Y+9	; 0x09
    163a:	5a 85       	ldd	r21, Y+10	; 0x0a
    163c:	b2 01       	movw	r22, r4
    163e:	c5 01       	movw	r24, r10
    1640:	0e 94 db 09 	call	0x13b6	; 0x13b6 <swapfunc>
    1644:	29 85       	ldd	r18, Y+9	; 0x09
    1646:	3a 85       	ldd	r19, Y+10	; 0x0a
    1648:	42 1a       	sub	r4, r18
    164a:	53 0a       	sbc	r5, r19
    164c:	41 e0       	ldi	r20, 0x01	; 1
    164e:	50 e0       	ldi	r21, 0x00	; 0
    1650:	49 83       	std	Y+1, r20	; 0x01
    1652:	5a 83       	std	Y+2, r21	; 0x02
    1654:	af 80       	ldd	r10, Y+7	; 0x07
    1656:	b8 84       	ldd	r11, Y+8	; 0x08
    1658:	a8 14       	cp	r10, r8
    165a:	b9 04       	cpc	r11, r9
    165c:	f0 f6       	brcc	.-68     	; 0x161a <qsort+0x1e2>
    165e:	0d c0       	rjmp	.+26     	; 0x167a <qsort+0x242>
    1660:	49 85       	ldd	r20, Y+9	; 0x09
    1662:	5a 85       	ldd	r21, Y+10	; 0x0a
    1664:	b5 01       	movw	r22, r10
    1666:	c4 01       	movw	r24, r8
    1668:	0e 94 db 09 	call	0x13b6	; 0x13b6 <swapfunc>
    166c:	af 80       	ldd	r10, Y+7	; 0x07
    166e:	b8 84       	ldd	r11, Y+8	; 0x08
    1670:	41 e0       	ldi	r20, 0x01	; 1
    1672:	50 e0       	ldi	r21, 0x00	; 0
    1674:	49 83       	std	Y+1, r20	; 0x01
    1676:	5a 83       	std	Y+2, r21	; 0x02
    1678:	c7 cf       	rjmp	.-114    	; 0x1608 <qsort+0x1d0>
    167a:	89 81       	ldd	r24, Y+1	; 0x01
    167c:	9a 81       	ldd	r25, Y+2	; 0x02
    167e:	89 2b       	or	r24, r25
    1680:	09 f4       	brne	.+2      	; 0x1684 <qsort+0x24c>
    1682:	4f c0       	rjmp	.+158    	; 0x1722 <qsort+0x2ea>
    1684:	6d 80       	ldd	r6, Y+5	; 0x05
    1686:	7e 80       	ldd	r7, Y+6	; 0x06
    1688:	29 85       	ldd	r18, Y+9	; 0x09
    168a:	3a 85       	ldd	r19, Y+10	; 0x0a
    168c:	62 0e       	add	r6, r18
    168e:	73 1e       	adc	r7, r19
    1690:	60 0e       	add	r6, r16
    1692:	71 1e       	adc	r7, r17
    1694:	74 01       	movw	r14, r8
    1696:	e2 18       	sub	r14, r2
    1698:	f3 08       	sbc	r15, r3
    169a:	a1 01       	movw	r20, r2
    169c:	40 1b       	sub	r20, r16
    169e:	51 0b       	sbc	r21, r17
    16a0:	e4 16       	cp	r14, r20
    16a2:	f5 06       	cpc	r15, r21
    16a4:	0c f4       	brge	.+2      	; 0x16a8 <qsort+0x270>
    16a6:	a7 01       	movw	r20, r14
    16a8:	14 16       	cp	r1, r20
    16aa:	15 06       	cpc	r1, r21
    16ac:	34 f4       	brge	.+12     	; 0x16ba <qsort+0x282>
    16ae:	b4 01       	movw	r22, r8
    16b0:	64 1b       	sub	r22, r20
    16b2:	75 0b       	sbc	r23, r21
    16b4:	c8 01       	movw	r24, r16
    16b6:	0e 94 db 09 	call	0x13b6	; 0x13b6 <swapfunc>
    16ba:	a2 01       	movw	r20, r4
    16bc:	4a 19       	sub	r20, r10
    16be:	5b 09       	sbc	r21, r11
    16c0:	5a 01       	movw	r10, r20
    16c2:	a3 01       	movw	r20, r6
    16c4:	44 19       	sub	r20, r4
    16c6:	55 09       	sbc	r21, r5
    16c8:	89 85       	ldd	r24, Y+9	; 0x09
    16ca:	9a 85       	ldd	r25, Y+10	; 0x0a
    16cc:	48 1b       	sub	r20, r24
    16ce:	59 0b       	sbc	r21, r25
    16d0:	a4 16       	cp	r10, r20
    16d2:	b5 06       	cpc	r11, r21
    16d4:	08 f4       	brcc	.+2      	; 0x16d8 <qsort+0x2a0>
    16d6:	a5 01       	movw	r20, r10
    16d8:	14 16       	cp	r1, r20
    16da:	15 06       	cpc	r1, r21
    16dc:	34 f4       	brge	.+12     	; 0x16ea <qsort+0x2b2>
    16de:	b3 01       	movw	r22, r6
    16e0:	64 1b       	sub	r22, r20
    16e2:	75 0b       	sbc	r23, r21
    16e4:	c4 01       	movw	r24, r8
    16e6:	0e 94 db 09 	call	0x13b6	; 0x13b6 <swapfunc>
    16ea:	e9 85       	ldd	r30, Y+9	; 0x09
    16ec:	fa 85       	ldd	r31, Y+10	; 0x0a
    16ee:	ee 15       	cp	r30, r14
    16f0:	ff 05       	cpc	r31, r15
    16f2:	48 f4       	brcc	.+18     	; 0x1706 <qsort+0x2ce>
    16f4:	c7 01       	movw	r24, r14
    16f6:	bf 01       	movw	r22, r30
    16f8:	0e 94 cf 0b 	call	0x179e	; 0x179e <__udivmodhi4>
    16fc:	96 01       	movw	r18, r12
    16fe:	af 01       	movw	r20, r30
    1700:	c8 01       	movw	r24, r16
    1702:	0e 94 1c 0a 	call	0x1438	; 0x1438 <qsort>
    1706:	29 85       	ldd	r18, Y+9	; 0x09
    1708:	3a 85       	ldd	r19, Y+10	; 0x0a
    170a:	2a 15       	cp	r18, r10
    170c:	3b 05       	cpc	r19, r11
    170e:	a0 f5       	brcc	.+104    	; 0x1778 <qsort+0x340>
    1710:	83 01       	movw	r16, r6
    1712:	0a 19       	sub	r16, r10
    1714:	1b 09       	sbc	r17, r11
    1716:	c5 01       	movw	r24, r10
    1718:	b9 01       	movw	r22, r18
    171a:	0e 94 cf 0b 	call	0x179e	; 0x179e <__udivmodhi4>
    171e:	7b 01       	movw	r14, r22
    1720:	96 ce       	rjmp	.-724    	; 0x144e <qsort+0x16>
    1722:	e9 85       	ldd	r30, Y+9	; 0x09
    1724:	fa 85       	ldd	r31, Y+10	; 0x0a
    1726:	ee 9e       	mul	r14, r30
    1728:	50 01       	movw	r10, r0
    172a:	ef 9e       	mul	r14, r31
    172c:	b0 0c       	add	r11, r0
    172e:	fe 9e       	mul	r15, r30
    1730:	b0 0c       	add	r11, r0
    1732:	11 24       	eor	r1, r1
    1734:	a0 0e       	add	r10, r16
    1736:	b1 1e       	adc	r11, r17
    1738:	6a 14       	cp	r6, r10
    173a:	7b 04       	cpc	r7, r11
    173c:	e8 f4       	brcc	.+58     	; 0x1778 <qsort+0x340>
    173e:	73 01       	movw	r14, r6
    1740:	0e 15       	cp	r16, r14
    1742:	1f 05       	cpc	r17, r15
    1744:	28 f0       	brcs	.+10     	; 0x1750 <qsort+0x318>
    1746:	89 85       	ldd	r24, Y+9	; 0x09
    1748:	9a 85       	ldd	r25, Y+10	; 0x0a
    174a:	68 0e       	add	r6, r24
    174c:	79 1e       	adc	r7, r25
    174e:	f4 cf       	rjmp	.-24     	; 0x1738 <qsort+0x300>
    1750:	47 01       	movw	r8, r14
    1752:	e9 85       	ldd	r30, Y+9	; 0x09
    1754:	fa 85       	ldd	r31, Y+10	; 0x0a
    1756:	8e 1a       	sub	r8, r30
    1758:	9f 0a       	sbc	r9, r31
    175a:	b7 01       	movw	r22, r14
    175c:	c4 01       	movw	r24, r8
    175e:	f6 01       	movw	r30, r12
    1760:	09 95       	icall
    1762:	18 16       	cp	r1, r24
    1764:	19 06       	cpc	r1, r25
    1766:	7c f7       	brge	.-34     	; 0x1746 <qsort+0x30e>
    1768:	49 85       	ldd	r20, Y+9	; 0x09
    176a:	5a 85       	ldd	r21, Y+10	; 0x0a
    176c:	b4 01       	movw	r22, r8
    176e:	c7 01       	movw	r24, r14
    1770:	0e 94 db 09 	call	0x13b6	; 0x13b6 <swapfunc>
    1774:	74 01       	movw	r14, r8
    1776:	e4 cf       	rjmp	.-56     	; 0x1740 <qsort+0x308>
    1778:	2a 96       	adiw	r28, 0x0a	; 10
    177a:	e2 e1       	ldi	r30, 0x12	; 18
    177c:	0c 94 fc 0b 	jmp	0x17f8	; 0x17f8 <__epilogue_restores__>

00001780 <memcpy>:
    1780:	fb 01       	movw	r30, r22
    1782:	dc 01       	movw	r26, r24
    1784:	02 c0       	rjmp	.+4      	; 0x178a <memcpy+0xa>
    1786:	01 90       	ld	r0, Z+
    1788:	0d 92       	st	X+, r0
    178a:	41 50       	subi	r20, 0x01	; 1
    178c:	50 40       	sbci	r21, 0x00	; 0
    178e:	d8 f7       	brcc	.-10     	; 0x1786 <memcpy+0x6>
    1790:	08 95       	ret

00001792 <ccp_write_io>:
    1792:	dc 01       	movw	r26, r24
    1794:	28 ed       	ldi	r18, 0xD8	; 216
    1796:	20 93 34 00 	sts	0x0034, r18	; 0x800034 <__RODATA_PM_OFFSET__+0x7f8034>
    179a:	6c 93       	st	X, r22
    179c:	08 95       	ret

0000179e <__udivmodhi4>:
    179e:	aa 1b       	sub	r26, r26
    17a0:	bb 1b       	sub	r27, r27
    17a2:	51 e1       	ldi	r21, 0x11	; 17
    17a4:	07 c0       	rjmp	.+14     	; 0x17b4 <__udivmodhi4_ep>

000017a6 <__udivmodhi4_loop>:
    17a6:	aa 1f       	adc	r26, r26
    17a8:	bb 1f       	adc	r27, r27
    17aa:	a6 17       	cp	r26, r22
    17ac:	b7 07       	cpc	r27, r23
    17ae:	10 f0       	brcs	.+4      	; 0x17b4 <__udivmodhi4_ep>
    17b0:	a6 1b       	sub	r26, r22
    17b2:	b7 0b       	sbc	r27, r23

000017b4 <__udivmodhi4_ep>:
    17b4:	88 1f       	adc	r24, r24
    17b6:	99 1f       	adc	r25, r25
    17b8:	5a 95       	dec	r21
    17ba:	a9 f7       	brne	.-22     	; 0x17a6 <__udivmodhi4_loop>
    17bc:	80 95       	com	r24
    17be:	90 95       	com	r25
    17c0:	bc 01       	movw	r22, r24
    17c2:	cd 01       	movw	r24, r26
    17c4:	08 95       	ret

000017c6 <__prologue_saves__>:
    17c6:	2f 92       	push	r2
    17c8:	3f 92       	push	r3
    17ca:	4f 92       	push	r4
    17cc:	5f 92       	push	r5
    17ce:	6f 92       	push	r6
    17d0:	7f 92       	push	r7
    17d2:	8f 92       	push	r8
    17d4:	9f 92       	push	r9
    17d6:	af 92       	push	r10
    17d8:	bf 92       	push	r11
    17da:	cf 92       	push	r12
    17dc:	df 92       	push	r13
    17de:	ef 92       	push	r14
    17e0:	ff 92       	push	r15
    17e2:	0f 93       	push	r16
    17e4:	1f 93       	push	r17
    17e6:	cf 93       	push	r28
    17e8:	df 93       	push	r29
    17ea:	cd b7       	in	r28, 0x3d	; 61
    17ec:	de b7       	in	r29, 0x3e	; 62
    17ee:	ca 1b       	sub	r28, r26
    17f0:	db 0b       	sbc	r29, r27
    17f2:	cd bf       	out	0x3d, r28	; 61
    17f4:	de bf       	out	0x3e, r29	; 62
    17f6:	09 94       	ijmp

000017f8 <__epilogue_restores__>:
    17f8:	2a 88       	ldd	r2, Y+18	; 0x12
    17fa:	39 88       	ldd	r3, Y+17	; 0x11
    17fc:	48 88       	ldd	r4, Y+16	; 0x10
    17fe:	5f 84       	ldd	r5, Y+15	; 0x0f
    1800:	6e 84       	ldd	r6, Y+14	; 0x0e
    1802:	7d 84       	ldd	r7, Y+13	; 0x0d
    1804:	8c 84       	ldd	r8, Y+12	; 0x0c
    1806:	9b 84       	ldd	r9, Y+11	; 0x0b
    1808:	aa 84       	ldd	r10, Y+10	; 0x0a
    180a:	b9 84       	ldd	r11, Y+9	; 0x09
    180c:	c8 84       	ldd	r12, Y+8	; 0x08
    180e:	df 80       	ldd	r13, Y+7	; 0x07
    1810:	ee 80       	ldd	r14, Y+6	; 0x06
    1812:	fd 80       	ldd	r15, Y+5	; 0x05
    1814:	0c 81       	ldd	r16, Y+4	; 0x04
    1816:	1b 81       	ldd	r17, Y+3	; 0x03
    1818:	aa 81       	ldd	r26, Y+2	; 0x02
    181a:	b9 81       	ldd	r27, Y+1	; 0x01
    181c:	ce 0f       	add	r28, r30
    181e:	d1 1d       	adc	r29, r1
    1820:	cd bf       	out	0x3d, r28	; 61
    1822:	de bf       	out	0x3e, r29	; 62
    1824:	ed 01       	movw	r28, r26
    1826:	08 95       	ret

00001828 <_exit>:
    1828:	f8 94       	cli

0000182a <__stop_program>:
    182a:	ff cf       	rjmp	.-2      	; 0x182a <__stop_program>
